
AVRASM ver. 2.1.30  C:\Users\YJW\Desktop\20210405_EP1G_YJW\List\EP1G.asm Mon Apr 05 19:08:36 2021

C:\Users\YJW\Desktop\20210405_EP1G_YJW\List\EP1G.asm(1090): warning: Register r5 already defined by the .DEF directive
C:\Users\YJW\Desktop\20210405_EP1G_YJW\List\EP1G.asm(1091): warning: Register r4 already defined by the .DEF directive
C:\Users\YJW\Desktop\20210405_EP1G_YJW\List\EP1G.asm(1092): warning: Register r7 already defined by the .DEF directive
C:\Users\YJW\Desktop\20210405_EP1G_YJW\List\EP1G.asm(1093): warning: Register r6 already defined by the .DEF directive
C:\Users\YJW\Desktop\20210405_EP1G_YJW\List\EP1G.asm(1094): warning: Register r9 already defined by the .DEF directive
C:\Users\YJW\Desktop\20210405_EP1G_YJW\List\EP1G.asm(1095): warning: Register r8 already defined by the .DEF directive
C:\Users\YJW\Desktop\20210405_EP1G_YJW\List\EP1G.asm(1096): warning: Register r11 already defined by the .DEF directive
C:\Users\YJW\Desktop\20210405_EP1G_YJW\List\EP1G.asm(1097): warning: Register r10 already defined by the .DEF directive
C:\Users\YJW\Desktop\20210405_EP1G_YJW\List\EP1G.asm(1098): warning: Register r13 already defined by the .DEF directive
C:\Users\YJW\Desktop\20210405_EP1G_YJW\List\EP1G.asm(1099): warning: Register r12 already defined by the .DEF directive
                 
                 
                 ;CodeVisionAVR C Compiler V3.12 Advanced
                 ;(C) Copyright 1998-2014 Pavel Haiduc, HP InfoTech s.r.l.
                 ;http://www.hpinfotech.com
                 
                 ;Build configuration    : Release
                 ;Chip type              : ATmega128
                 ;Program type           : Application
                 ;Clock frequency        : 16.000000 MHz
                 ;Memory model           : Small
                 ;Optimize for           : Size
                 ;(s)printf features     : int, width
                 ;(s)scanf features      : int, width
                 ;External RAM size      : 0
                 ;Data Stack size        : 1024 byte(s)
                 ;Heap size              : 0 byte(s)
                 ;Promote 'char' to 'int': No
                 ;'char' is unsigned     : Yes
                 ;8 bit enums            : No
                 ;Global 'const' stored in FLASH: Yes
                 ;Enhanced function parameter passing: Yes
                 ;Enhanced core instructions: On
                 ;Automatic register allocation for global variables: On
                 ;Smart register allocation: On
                 
                 	#define _MODEL_SMALL_
                 
                 	#pragma AVRPART ADMIN PART_NAME ATmega128
                 	#pragma AVRPART MEMORY PROG_FLASH 131072
                 	#pragma AVRPART MEMORY EEPROM 4096
                 	#pragma AVRPART MEMORY INT_SRAM SIZE 4096
                 	#pragma AVRPART MEMORY INT_SRAM START_ADDR 0x100
                 
                 	#define CALL_SUPPORTED 1
                 
                 	.LISTMAC
                 	.EQU UDRE=0x5
                 	.EQU RXC=0x7
                 	.EQU USR=0xB
                 	.EQU UDR=0xC
                 	.EQU SPSR=0xE
                 	.EQU SPDR=0xF
                 	.EQU EERE=0x0
                 	.EQU EEWE=0x1
                 	.EQU EEMWE=0x2
                 	.EQU EECR=0x1C
                 	.EQU EEDR=0x1D
                 	.EQU EEARL=0x1E
                 	.EQU EEARH=0x1F
                 	.EQU WDTCR=0x21
                 	.EQU MCUCR=0x35
                 	.EQU RAMPZ=0x3B
                 	.EQU SPL=0x3D
                 	.EQU SPH=0x3E
                 	.EQU SREG=0x3F
                 	.EQU XMCRA=0x6D
                 	.EQU XMCRB=0x6C
                 
                 	.DEF R0X0=R0
                 	.DEF R0X1=R1
                 	.DEF R0X2=R2
                 	.DEF R0X3=R3
                 	.DEF R0X4=R4
                 	.DEF R0X5=R5
                 	.DEF R0X6=R6
                 	.DEF R0X7=R7
                 	.DEF R0X8=R8
                 	.DEF R0X9=R9
                 	.DEF R0XA=R10
                 	.DEF R0XB=R11
                 	.DEF R0XC=R12
                 	.DEF R0XD=R13
                 	.DEF R0XE=R14
                 	.DEF R0XF=R15
                 	.DEF R0X10=R16
                 	.DEF R0X11=R17
                 	.DEF R0X12=R18
                 	.DEF R0X13=R19
                 	.DEF R0X14=R20
                 	.DEF R0X15=R21
                 	.DEF R0X16=R22
                 	.DEF R0X17=R23
                 	.DEF R0X18=R24
                 	.DEF R0X19=R25
                 	.DEF R0X1A=R26
                 	.DEF R0X1B=R27
                 	.DEF R0X1C=R28
                 	.DEF R0X1D=R29
                 	.DEF R0X1E=R30
                 	.DEF R0X1F=R31
                 
                 	.EQU __SRAM_START=0x0100
                 	.EQU __SRAM_END=0x10FF
                 	.EQU __DSTACK_SIZE=0x0400
                 	.EQU __HEAP_SIZE=0x0000
                 	.EQU __CLEAR_SRAM_SIZE=__SRAM_END-__SRAM_START+1
                 
                 	.MACRO __CPD1N
                 	CPI  R30,LOW(@0)
                 	LDI  R26,HIGH(@0)
                 	CPC  R31,R26
                 	LDI  R26,BYTE3(@0)
                 	CPC  R22,R26
                 	LDI  R26,BYTE4(@0)
                 	CPC  R23,R26
                 	.ENDM
                 
                 	.MACRO __CPD2N
                 	CPI  R26,LOW(@0)
                 	LDI  R30,HIGH(@0)
                 	CPC  R27,R30
                 	LDI  R30,BYTE3(@0)
                 	CPC  R24,R30
                 	LDI  R30,BYTE4(@0)
                 	CPC  R25,R30
                 	.ENDM
                 
                 	.MACRO __CPWRR
                 	CP   R@0,R@2
                 	CPC  R@1,R@3
                 	.ENDM
                 
                 	.MACRO __CPWRN
                 	CPI  R@0,LOW(@2)
                 	LDI  R30,HIGH(@2)
                 	CPC  R@1,R30
                 	.ENDM
                 
                 	.MACRO __ADDB1MN
                 	SUBI R30,LOW(-@0-(@1))
                 	.ENDM
                 
                 	.MACRO __ADDB2MN
                 	SUBI R26,LOW(-@0-(@1))
                 	.ENDM
                 
                 	.MACRO __ADDW1MN
                 	SUBI R30,LOW(-@0-(@1))
                 	SBCI R31,HIGH(-@0-(@1))
                 	.ENDM
                 
                 	.MACRO __ADDW2MN
                 	SUBI R26,LOW(-@0-(@1))
                 	SBCI R27,HIGH(-@0-(@1))
                 	.ENDM
                 
                 	.MACRO __ADDW1FN
                 	SUBI R30,LOW(-2*@0-(@1))
                 	SBCI R31,HIGH(-2*@0-(@1))
                 	.ENDM
                 
                 	.MACRO __ADDD1FN
                 	SUBI R30,LOW(-2*@0-(@1))
                 	SBCI R31,HIGH(-2*@0-(@1))
                 	SBCI R22,BYTE3(-2*@0-(@1))
                 	.ENDM
                 
                 	.MACRO __ADDD1N
                 	SUBI R30,LOW(-@0)
                 	SBCI R31,HIGH(-@0)
                 	SBCI R22,BYTE3(-@0)
                 	SBCI R23,BYTE4(-@0)
                 	.ENDM
                 
                 	.MACRO __ADDD2N
                 	SUBI R26,LOW(-@0)
                 	SBCI R27,HIGH(-@0)
                 	SBCI R24,BYTE3(-@0)
                 	SBCI R25,BYTE4(-@0)
                 	.ENDM
                 
                 	.MACRO __SUBD1N
                 	SUBI R30,LOW(@0)
                 	SBCI R31,HIGH(@0)
                 	SBCI R22,BYTE3(@0)
                 	SBCI R23,BYTE4(@0)
                 	.ENDM
                 
                 	.MACRO __SUBD2N
                 	SUBI R26,LOW(@0)
                 	SBCI R27,HIGH(@0)
                 	SBCI R24,BYTE3(@0)
                 	SBCI R25,BYTE4(@0)
                 	.ENDM
                 
                 	.MACRO __ANDBMNN
                 	LDS  R30,@0+(@1)
                 	ANDI R30,LOW(@2)
                 	STS  @0+(@1),R30
                 	.ENDM
                 
                 	.MACRO __ANDWMNN
                 	LDS  R30,@0+(@1)
                 	ANDI R30,LOW(@2)
                 	STS  @0+(@1),R30
                 	LDS  R30,@0+(@1)+1
                 	ANDI R30,HIGH(@2)
                 	STS  @0+(@1)+1,R30
                 	.ENDM
                 
                 	.MACRO __ANDD1N
                 	ANDI R30,LOW(@0)
                 	ANDI R31,HIGH(@0)
                 	ANDI R22,BYTE3(@0)
                 	ANDI R23,BYTE4(@0)
                 	.ENDM
                 
                 	.MACRO __ANDD2N
                 	ANDI R26,LOW(@0)
                 	ANDI R27,HIGH(@0)
                 	ANDI R24,BYTE3(@0)
                 	ANDI R25,BYTE4(@0)
                 	.ENDM
                 
                 	.MACRO __ORBMNN
                 	LDS  R30,@0+(@1)
                 	ORI  R30,LOW(@2)
                 	STS  @0+(@1),R30
                 	.ENDM
                 
                 	.MACRO __ORWMNN
                 	LDS  R30,@0+(@1)
                 	ORI  R30,LOW(@2)
                 	STS  @0+(@1),R30
                 	LDS  R30,@0+(@1)+1
                 	ORI  R30,HIGH(@2)
                 	STS  @0+(@1)+1,R30
                 	.ENDM
                 
                 	.MACRO __ORD1N
                 	ORI  R30,LOW(@0)
                 	ORI  R31,HIGH(@0)
                 	ORI  R22,BYTE3(@0)
                 	ORI  R23,BYTE4(@0)
                 	.ENDM
                 
                 	.MACRO __ORD2N
                 	ORI  R26,LOW(@0)
                 	ORI  R27,HIGH(@0)
                 	ORI  R24,BYTE3(@0)
                 	ORI  R25,BYTE4(@0)
                 	.ENDM
                 
                 	.MACRO __DELAY_USB
                 	LDI  R24,LOW(@0)
                 __DELAY_USB_LOOP:
                 	DEC  R24
                 	BRNE __DELAY_USB_LOOP
                 	.ENDM
                 
                 	.MACRO __DELAY_USW
                 	LDI  R24,LOW(@0)
                 	LDI  R25,HIGH(@0)
                 __DELAY_USW_LOOP:
                 	SBIW R24,1
                 	BRNE __DELAY_USW_LOOP
                 	.ENDM
                 
                 	.MACRO __GETD1S
                 	LDD  R30,Y+@0
                 	LDD  R31,Y+@0+1
                 	LDD  R22,Y+@0+2
                 	LDD  R23,Y+@0+3
                 	.ENDM
                 
                 	.MACRO __GETD2S
                 	LDD  R26,Y+@0
                 	LDD  R27,Y+@0+1
                 	LDD  R24,Y+@0+2
                 	LDD  R25,Y+@0+3
                 	.ENDM
                 
                 	.MACRO __PUTD1S
                 	STD  Y+@0,R30
                 	STD  Y+@0+1,R31
                 	STD  Y+@0+2,R22
                 	STD  Y+@0+3,R23
                 	.ENDM
                 
                 	.MACRO __PUTD2S
                 	STD  Y+@0,R26
                 	STD  Y+@0+1,R27
                 	STD  Y+@0+2,R24
                 	STD  Y+@0+3,R25
                 	.ENDM
                 
                 	.MACRO __PUTDZ2
                 	STD  Z+@0,R26
                 	STD  Z+@0+1,R27
                 	STD  Z+@0+2,R24
                 	STD  Z+@0+3,R25
                 	.ENDM
                 
                 	.MACRO __CLRD1S
                 	STD  Y+@0,R30
                 	STD  Y+@0+1,R30
                 	STD  Y+@0+2,R30
                 	STD  Y+@0+3,R30
                 	.ENDM
                 
                 	.MACRO __POINTB1MN
                 	LDI  R30,LOW(@0+(@1))
                 	.ENDM
                 
                 	.MACRO __POINTW1MN
                 	LDI  R30,LOW(@0+(@1))
                 	LDI  R31,HIGH(@0+(@1))
                 	.ENDM
                 
                 	.MACRO __POINTD1M
                 	LDI  R30,LOW(@0)
                 	LDI  R31,HIGH(@0)
                 	LDI  R22,BYTE3(@0)
                 	LDI  R23,BYTE4(@0)
                 	.ENDM
                 
                 	.MACRO __POINTW1FN
                 	LDI  R30,LOW(2*@0+(@1))
                 	LDI  R31,HIGH(2*@0+(@1))
                 	.ENDM
                 
                 	.MACRO __POINTD1FN
                 	LDI  R30,LOW(2*@0+(@1))
                 	LDI  R31,HIGH(2*@0+(@1))
                 	LDI  R22,BYTE3(2*@0+(@1))
                 	LDI  R23,BYTE4(2*@0+(@1))
                 	.ENDM
                 
                 	.MACRO __POINTB2MN
                 	LDI  R26,LOW(@0+(@1))
                 	.ENDM
                 
                 	.MACRO __POINTW2MN
                 	LDI  R26,LOW(@0+(@1))
                 	LDI  R27,HIGH(@0+(@1))
                 	.ENDM
                 
                 	.MACRO __POINTW2FN
                 	LDI  R26,LOW(2*@0+(@1))
                 	LDI  R27,HIGH(2*@0+(@1))
                 	.ENDM
                 
                 	.MACRO __POINTD2FN
                 	LDI  R26,LOW(2*@0+(@1))
                 	LDI  R27,HIGH(2*@0+(@1))
                 	LDI  R24,BYTE3(2*@0+(@1))
                 	LDI  R25,BYTE4(2*@0+(@1))
                 	.ENDM
                 
                 	.MACRO __POINTBRM
                 	LDI  R@0,LOW(@1)
                 	.ENDM
                 
                 	.MACRO __POINTWRM
                 	LDI  R@0,LOW(@2)
                 	LDI  R@1,HIGH(@2)
                 	.ENDM
                 
                 	.MACRO __POINTBRMN
                 	LDI  R@0,LOW(@1+(@2))
                 	.ENDM
                 
                 	.MACRO __POINTWRMN
                 	LDI  R@0,LOW(@2+(@3))
                 	LDI  R@1,HIGH(@2+(@3))
                 	.ENDM
                 
                 	.MACRO __POINTWRFN
                 	LDI  R@0,LOW(@2*2+(@3))
                 	LDI  R@1,HIGH(@2*2+(@3))
                 	.ENDM
                 
                 	.MACRO __GETD1N
                 	LDI  R30,LOW(@0)
                 	LDI  R31,HIGH(@0)
                 	LDI  R22,BYTE3(@0)
                 	LDI  R23,BYTE4(@0)
                 	.ENDM
                 
                 	.MACRO __GETD2N
                 	LDI  R26,LOW(@0)
                 	LDI  R27,HIGH(@0)
                 	LDI  R24,BYTE3(@0)
                 	LDI  R25,BYTE4(@0)
                 	.ENDM
                 
                 	.MACRO __GETB1MN
                 	LDS  R30,@0+(@1)
                 	.ENDM
                 
                 	.MACRO __GETB1HMN
                 	LDS  R31,@0+(@1)
                 	.ENDM
                 
                 	.MACRO __GETW1MN
                 	LDS  R30,@0+(@1)
                 	LDS  R31,@0+(@1)+1
                 	.ENDM
                 
                 	.MACRO __GETD1MN
                 	LDS  R30,@0+(@1)
                 	LDS  R31,@0+(@1)+1
                 	LDS  R22,@0+(@1)+2
                 	LDS  R23,@0+(@1)+3
                 	.ENDM
                 
                 	.MACRO __GETBRMN
                 	LDS  R@0,@1+(@2)
                 	.ENDM
                 
                 	.MACRO __GETWRMN
                 	LDS  R@0,@2+(@3)
                 	LDS  R@1,@2+(@3)+1
                 	.ENDM
                 
                 	.MACRO __GETWRZ
                 	LDD  R@0,Z+@2
                 	LDD  R@1,Z+@2+1
                 	.ENDM
                 
                 	.MACRO __GETD2Z
                 	LDD  R26,Z+@0
                 	LDD  R27,Z+@0+1
                 	LDD  R24,Z+@0+2
                 	LDD  R25,Z+@0+3
                 	.ENDM
                 
                 	.MACRO __GETB2MN
                 	LDS  R26,@0+(@1)
                 	.ENDM
                 
                 	.MACRO __GETW2MN
                 	LDS  R26,@0+(@1)
                 	LDS  R27,@0+(@1)+1
                 	.ENDM
                 
                 	.MACRO __GETD2MN
                 	LDS  R26,@0+(@1)
                 	LDS  R27,@0+(@1)+1
                 	LDS  R24,@0+(@1)+2
                 	LDS  R25,@0+(@1)+3
                 	.ENDM
                 
                 	.MACRO __PUTB1MN
                 	STS  @0+(@1),R30
                 	.ENDM
                 
                 	.MACRO __PUTW1MN
                 	STS  @0+(@1),R30
                 	STS  @0+(@1)+1,R31
                 	.ENDM
                 
                 	.MACRO __PUTD1MN
                 	STS  @0+(@1),R30
                 	STS  @0+(@1)+1,R31
                 	STS  @0+(@1)+2,R22
                 	STS  @0+(@1)+3,R23
                 	.ENDM
                 
                 	.MACRO __PUTB1EN
                 	LDI  R26,LOW(@0+(@1))
                 	LDI  R27,HIGH(@0+(@1))
                 	CALL __EEPROMWRB
                 	.ENDM
                 
                 	.MACRO __PUTW1EN
                 	LDI  R26,LOW(@0+(@1))
                 	LDI  R27,HIGH(@0+(@1))
                 	CALL __EEPROMWRW
                 	.ENDM
                 
                 	.MACRO __PUTD1EN
                 	LDI  R26,LOW(@0+(@1))
                 	LDI  R27,HIGH(@0+(@1))
                 	CALL __EEPROMWRD
                 	.ENDM
                 
                 	.MACRO __PUTBR0MN
                 	STS  @0+(@1),R0
                 	.ENDM
                 
                 	.MACRO __PUTBMRN
                 	STS  @0+(@1),R@2
                 	.ENDM
                 
                 	.MACRO __PUTWMRN
                 	STS  @0+(@1),R@2
                 	STS  @0+(@1)+1,R@3
                 	.ENDM
                 
                 	.MACRO __PUTBZR
                 	STD  Z+@1,R@0
                 	.ENDM
                 
                 	.MACRO __PUTWZR
                 	STD  Z+@2,R@0
                 	STD  Z+@2+1,R@1
                 	.ENDM
                 
                 	.MACRO __GETW1R
                 	MOV  R30,R@0
                 	MOV  R31,R@1
                 	.ENDM
                 
                 	.MACRO __GETW2R
                 	MOV  R26,R@0
                 	MOV  R27,R@1
                 	.ENDM
                 
                 	.MACRO __GETWRN
                 	LDI  R@0,LOW(@2)
                 	LDI  R@1,HIGH(@2)
                 	.ENDM
                 
                 	.MACRO __PUTW1R
                 	MOV  R@0,R30
                 	MOV  R@1,R31
                 	.ENDM
                 
                 	.MACRO __PUTW2R
                 	MOV  R@0,R26
                 	MOV  R@1,R27
                 	.ENDM
                 
                 	.MACRO __ADDWRN
                 	SUBI R@0,LOW(-@2)
                 	SBCI R@1,HIGH(-@2)
                 	.ENDM
                 
                 	.MACRO __ADDWRR
                 	ADD  R@0,R@2
                 	ADC  R@1,R@3
                 	.ENDM
                 
                 	.MACRO __SUBWRN
                 	SUBI R@0,LOW(@2)
                 	SBCI R@1,HIGH(@2)
                 	.ENDM
                 
                 	.MACRO __SUBWRR
                 	SUB  R@0,R@2
                 	SBC  R@1,R@3
                 	.ENDM
                 
                 	.MACRO __ANDWRN
                 	ANDI R@0,LOW(@2)
                 	ANDI R@1,HIGH(@2)
                 	.ENDM
                 
                 	.MACRO __ANDWRR
                 	AND  R@0,R@2
                 	AND  R@1,R@3
                 	.ENDM
                 
                 	.MACRO __ORWRN
                 	ORI  R@0,LOW(@2)
                 	ORI  R@1,HIGH(@2)
                 	.ENDM
                 
                 	.MACRO __ORWRR
                 	OR   R@0,R@2
                 	OR   R@1,R@3
                 	.ENDM
                 
                 	.MACRO __EORWRR
                 	EOR  R@0,R@2
                 	EOR  R@1,R@3
                 	.ENDM
                 
                 	.MACRO __GETWRS
                 	LDD  R@0,Y+@2
                 	LDD  R@1,Y+@2+1
                 	.ENDM
                 
                 	.MACRO __PUTBSR
                 	STD  Y+@1,R@0
                 	.ENDM
                 
                 	.MACRO __PUTWSR
                 	STD  Y+@2,R@0
                 	STD  Y+@2+1,R@1
                 	.ENDM
                 
                 	.MACRO __MOVEWRR
                 	MOV  R@0,R@2
                 	MOV  R@1,R@3
                 	.ENDM
                 
                 	.MACRO __INWR
                 	IN   R@0,@2
                 	IN   R@1,@2+1
                 	.ENDM
                 
                 	.MACRO __OUTWR
                 	OUT  @2+1,R@1
                 	OUT  @2,R@0
                 	.ENDM
                 
                 	.MACRO __CALL1MN
                 	LDS  R30,@0+(@1)
                 	LDS  R31,@0+(@1)+1
                 	ICALL
                 	.ENDM
                 
                 	.MACRO __CALL1FN
                 	LDI  R30,LOW(2*@0+(@1))
                 	LDI  R31,HIGH(2*@0+(@1))
                 	CALL __GETW1PF
                 	ICALL
                 	.ENDM
                 
                 	.MACRO __CALL2EN
                 	PUSH R26
                 	PUSH R27
                 	LDI  R26,LOW(@0+(@1))
                 	LDI  R27,HIGH(@0+(@1))
                 	CALL __EEPROMRDW
                 	POP  R27
                 	POP  R26
                 	ICALL
                 	.ENDM
                 
                 	.MACRO __CALL2EX
                 	SUBI R26,LOW(-@0)
                 	SBCI R27,HIGH(-@0)
                 	CALL __EEPROMRDD
                 	ICALL
                 	.ENDM
                 
                 	.MACRO __GETW1STACK
                 	IN   R30,SPL
                 	IN   R31,SPH
                 	ADIW R30,@0+1
                 	LD   R0,Z+
                 	LD   R31,Z
                 	MOV  R30,R0
                 	.ENDM
                 
                 	.MACRO __GETD1STACK
                 	IN   R30,SPL
                 	IN   R31,SPH
                 	ADIW R30,@0+1
                 	LD   R0,Z+
                 	LD   R1,Z+
                 	LD   R22,Z
                 	MOVW R30,R0
                 	.ENDM
                 
                 	.MACRO __NBST
                 	BST  R@0,@1
                 	IN   R30,SREG
                 	LDI  R31,0x40
                 	EOR  R30,R31
                 	OUT  SREG,R30
                 	.ENDM
                 
                 
                 	.MACRO __PUTB1SN
                 	LDD  R26,Y+@0
                 	LDD  R27,Y+@0+1
                 	SUBI R26,LOW(-@1)
                 	SBCI R27,HIGH(-@1)
                 	ST   X,R30
                 	.ENDM
                 
                 	.MACRO __PUTW1SN
                 	LDD  R26,Y+@0
                 	LDD  R27,Y+@0+1
                 	SUBI R26,LOW(-@1)
                 	SBCI R27,HIGH(-@1)
                 	ST   X+,R30
                 	ST   X,R31
                 	.ENDM
                 
                 	.MACRO __PUTD1SN
                 	LDD  R26,Y+@0
                 	LDD  R27,Y+@0+1
                 	SUBI R26,LOW(-@1)
                 	SBCI R27,HIGH(-@1)
                 	CALL __PUTDP1
                 	.ENDM
                 
                 	.MACRO __PUTB1SNS
                 	LDD  R26,Y+@0
                 	LDD  R27,Y+@0+1
                 	ADIW R26,@1
                 	ST   X,R30
                 	.ENDM
                 
                 	.MACRO __PUTW1SNS
                 	LDD  R26,Y+@0
                 	LDD  R27,Y+@0+1
                 	ADIW R26,@1
                 	ST   X+,R30
                 	ST   X,R31
                 	.ENDM
                 
                 	.MACRO __PUTD1SNS
                 	LDD  R26,Y+@0
                 	LDD  R27,Y+@0+1
                 	ADIW R26,@1
                 	CALL __PUTDP1
                 	.ENDM
                 
                 	.MACRO __PUTB1PMN
                 	LDS  R26,@0
                 	LDS  R27,@0+1
                 	SUBI R26,LOW(-@1)
                 	SBCI R27,HIGH(-@1)
                 	ST   X,R30
                 	.ENDM
                 
                 	.MACRO __PUTW1PMN
                 	LDS  R26,@0
                 	LDS  R27,@0+1
                 	SUBI R26,LOW(-@1)
                 	SBCI R27,HIGH(-@1)
                 	ST   X+,R30
                 	ST   X,R31
                 	.ENDM
                 
                 	.MACRO __PUTD1PMN
                 	LDS  R26,@0
                 	LDS  R27,@0+1
                 	SUBI R26,LOW(-@1)
                 	SBCI R27,HIGH(-@1)
                 	CALL __PUTDP1
                 	.ENDM
                 
                 	.MACRO __PUTB1PMNS
                 	LDS  R26,@0
                 	LDS  R27,@0+1
                 	ADIW R26,@1
                 	ST   X,R30
                 	.ENDM
                 
                 	.MACRO __PUTW1PMNS
                 	LDS  R26,@0
                 	LDS  R27,@0+1
                 	ADIW R26,@1
                 	ST   X+,R30
                 	ST   X,R31
                 	.ENDM
                 
                 	.MACRO __PUTD1PMNS
                 	LDS  R26,@0
                 	LDS  R27,@0+1
                 	ADIW R26,@1
                 	CALL __PUTDP1
                 	.ENDM
                 
                 	.MACRO __PUTB1RN
                 	MOVW R26,R@0
                 	SUBI R26,LOW(-@1)
                 	SBCI R27,HIGH(-@1)
                 	ST   X,R30
                 	.ENDM
                 
                 	.MACRO __PUTW1RN
                 	MOVW R26,R@0
                 	SUBI R26,LOW(-@1)
                 	SBCI R27,HIGH(-@1)
                 	ST   X+,R30
                 	ST   X,R31
                 	.ENDM
                 
                 	.MACRO __PUTD1RN
                 	MOVW R26,R@0
                 	SUBI R26,LOW(-@1)
                 	SBCI R27,HIGH(-@1)
                 	CALL __PUTDP1
                 	.ENDM
                 
                 	.MACRO __PUTB1RNS
                 	MOVW R26,R@0
                 	ADIW R26,@1
                 	ST   X,R30
                 	.ENDM
                 
                 	.MACRO __PUTW1RNS
                 	MOVW R26,R@0
                 	ADIW R26,@1
                 	ST   X+,R30
                 	ST   X,R31
                 	.ENDM
                 
                 	.MACRO __PUTD1RNS
                 	MOVW R26,R@0
                 	ADIW R26,@1
                 	CALL __PUTDP1
                 	.ENDM
                 
                 	.MACRO __PUTB1RON
                 	MOV  R26,R@0
                 	MOV  R27,R@1
                 	SUBI R26,LOW(-@2)
                 	SBCI R27,HIGH(-@2)
                 	ST   X,R30
                 	.ENDM
                 
                 	.MACRO __PUTW1RON
                 	MOV  R26,R@0
                 	MOV  R27,R@1
                 	SUBI R26,LOW(-@2)
                 	SBCI R27,HIGH(-@2)
                 	ST   X+,R30
                 	ST   X,R31
                 	.ENDM
                 
                 	.MACRO __PUTD1RON
                 	MOV  R26,R@0
                 	MOV  R27,R@1
                 	SUBI R26,LOW(-@2)
                 	SBCI R27,HIGH(-@2)
                 	CALL __PUTDP1
                 	.ENDM
                 
                 	.MACRO __PUTB1RONS
                 	MOV  R26,R@0
                 	MOV  R27,R@1
                 	ADIW R26,@2
                 	ST   X,R30
                 	.ENDM
                 
                 	.MACRO __PUTW1RONS
                 	MOV  R26,R@0
                 	MOV  R27,R@1
                 	ADIW R26,@2
                 	ST   X+,R30
                 	ST   X,R31
                 	.ENDM
                 
                 	.MACRO __PUTD1RONS
                 	MOV  R26,R@0
                 	MOV  R27,R@1
                 	ADIW R26,@2
                 	CALL __PUTDP1
                 	.ENDM
                 
                 
                 	.MACRO __GETB1SX
                 	MOVW R30,R28
                 	SUBI R30,LOW(-@0)
                 	SBCI R31,HIGH(-@0)
                 	LD   R30,Z
                 	.ENDM
                 
                 	.MACRO __GETB1HSX
                 	MOVW R30,R28
                 	SUBI R30,LOW(-@0)
                 	SBCI R31,HIGH(-@0)
                 	LD   R31,Z
                 	.ENDM
                 
                 	.MACRO __GETW1SX
                 	MOVW R30,R28
                 	SUBI R30,LOW(-@0)
                 	SBCI R31,HIGH(-@0)
                 	LD   R0,Z+
                 	LD   R31,Z
                 	MOV  R30,R0
                 	.ENDM
                 
                 	.MACRO __GETD1SX
                 	MOVW R30,R28
                 	SUBI R30,LOW(-@0)
                 	SBCI R31,HIGH(-@0)
                 	LD   R0,Z+
                 	LD   R1,Z+
                 	LD   R22,Z+
                 	LD   R23,Z
                 	MOVW R30,R0
                 	.ENDM
                 
                 	.MACRO __GETB2SX
                 	MOVW R26,R28
                 	SUBI R26,LOW(-@0)
                 	SBCI R27,HIGH(-@0)
                 	LD   R26,X
                 	.ENDM
                 
                 	.MACRO __GETW2SX
                 	MOVW R26,R28
                 	SUBI R26,LOW(-@0)
                 	SBCI R27,HIGH(-@0)
                 	LD   R0,X+
                 	LD   R27,X
                 	MOV  R26,R0
                 	.ENDM
                 
                 	.MACRO __GETD2SX
                 	MOVW R26,R28
                 	SUBI R26,LOW(-@0)
                 	SBCI R27,HIGH(-@0)
                 	LD   R0,X+
                 	LD   R1,X+
                 	LD   R24,X+
                 	LD   R25,X
                 	MOVW R26,R0
                 	.ENDM
                 
                 	.MACRO __GETBRSX
                 	MOVW R30,R28
                 	SUBI R30,LOW(-@1)
                 	SBCI R31,HIGH(-@1)
                 	LD   R@0,Z
                 	.ENDM
                 
                 	.MACRO __GETWRSX
                 	MOVW R30,R28
                 	SUBI R30,LOW(-@2)
                 	SBCI R31,HIGH(-@2)
                 	LD   R@0,Z+
                 	LD   R@1,Z
                 	.ENDM
                 
                 	.MACRO __GETBRSX2
                 	MOVW R26,R28
                 	SUBI R26,LOW(-@1)
                 	SBCI R27,HIGH(-@1)
                 	LD   R@0,X
                 	.ENDM
                 
                 	.MACRO __GETWRSX2
                 	MOVW R26,R28
                 	SUBI R26,LOW(-@2)
                 	SBCI R27,HIGH(-@2)
                 	LD   R@0,X+
                 	LD   R@1,X
                 	.ENDM
                 
                 	.MACRO __LSLW8SX
                 	MOVW R30,R28
                 	SUBI R30,LOW(-@0)
                 	SBCI R31,HIGH(-@0)
                 	LD   R31,Z
                 	CLR  R30
                 	.ENDM
                 
                 	.MACRO __PUTB1SX
                 	MOVW R26,R28
                 	SUBI R26,LOW(-@0)
                 	SBCI R27,HIGH(-@0)
                 	ST   X,R30
                 	.ENDM
                 
                 	.MACRO __PUTW1SX
                 	MOVW R26,R28
                 	SUBI R26,LOW(-@0)
                 	SBCI R27,HIGH(-@0)
                 	ST   X+,R30
                 	ST   X,R31
                 	.ENDM
                 
                 	.MACRO __PUTD1SX
                 	MOVW R26,R28
                 	SUBI R26,LOW(-@0)
                 	SBCI R27,HIGH(-@0)
                 	ST   X+,R30
                 	ST   X+,R31
                 	ST   X+,R22
                 	ST   X,R23
                 	.ENDM
                 
                 	.MACRO __CLRW1SX
                 	MOVW R26,R28
                 	SUBI R26,LOW(-@0)
                 	SBCI R27,HIGH(-@0)
                 	ST   X+,R30
                 	ST   X,R30
                 	.ENDM
                 
                 	.MACRO __CLRD1SX
                 	MOVW R26,R28
                 	SUBI R26,LOW(-@0)
                 	SBCI R27,HIGH(-@0)
                 	ST   X+,R30
                 	ST   X+,R30
                 	ST   X+,R30
                 	ST   X,R30
                 	.ENDM
                 
                 	.MACRO __PUTB2SX
                 	MOVW R30,R28
                 	SUBI R30,LOW(-@0)
                 	SBCI R31,HIGH(-@0)
                 	ST   Z,R26
                 	.ENDM
                 
                 	.MACRO __PUTW2SX
                 	MOVW R30,R28
                 	SUBI R30,LOW(-@0)
                 	SBCI R31,HIGH(-@0)
                 	ST   Z+,R26
                 	ST   Z,R27
                 	.ENDM
                 
                 	.MACRO __PUTD2SX
                 	MOVW R30,R28
                 	SUBI R30,LOW(-@0)
                 	SBCI R31,HIGH(-@0)
                 	ST   Z+,R26
                 	ST   Z+,R27
                 	ST   Z+,R24
                 	ST   Z,R25
                 	.ENDM
                 
                 	.MACRO __PUTBSRX
                 	MOVW R30,R28
                 	SUBI R30,LOW(-@1)
                 	SBCI R31,HIGH(-@1)
                 	ST   Z,R@0
                 	.ENDM
                 
                 	.MACRO __PUTWSRX
                 	MOVW R30,R28
                 	SUBI R30,LOW(-@2)
                 	SBCI R31,HIGH(-@2)
                 	ST   Z+,R@0
                 	ST   Z,R@1
                 	.ENDM
                 
                 	.MACRO __PUTB1SNX
                 	MOVW R26,R28
                 	SUBI R26,LOW(-@0)
                 	SBCI R27,HIGH(-@0)
                 	LD   R0,X+
                 	LD   R27,X
                 	MOV  R26,R0
                 	SUBI R26,LOW(-@1)
                 	SBCI R27,HIGH(-@1)
                 	ST   X,R30
                 	.ENDM
                 
                 	.MACRO __PUTW1SNX
                 	MOVW R26,R28
                 	SUBI R26,LOW(-@0)
                 	SBCI R27,HIGH(-@0)
                 	LD   R0,X+
                 	LD   R27,X
                 	MOV  R26,R0
                 	SUBI R26,LOW(-@1)
                 	SBCI R27,HIGH(-@1)
                 	ST   X+,R30
                 	ST   X,R31
                 	.ENDM
                 
                 	.MACRO __PUTD1SNX
                 	MOVW R26,R28
                 	SUBI R26,LOW(-@0)
                 	SBCI R27,HIGH(-@0)
                 	LD   R0,X+
                 	LD   R27,X
                 	MOV  R26,R0
                 	SUBI R26,LOW(-@1)
                 	SBCI R27,HIGH(-@1)
                 	ST   X+,R30
                 	ST   X+,R31
                 	ST   X+,R22
                 	ST   X,R23
                 	.ENDM
                 
                 	.MACRO __MULBRR
                 	MULS R@0,R@1
                 	MOVW R30,R0
                 	.ENDM
                 
                 	.MACRO __MULBRRU
                 	MUL  R@0,R@1
                 	MOVW R30,R0
                 	.ENDM
                 
                 	.MACRO __MULBRR0
                 	MULS R@0,R@1
                 	.ENDM
                 
                 	.MACRO __MULBRRU0
                 	MUL  R@0,R@1
                 	.ENDM
                 
                 	.MACRO __MULBNWRU
                 	LDI  R26,@2
                 	MUL  R26,R@0
                 	MOVW R30,R0
                 	MUL  R26,R@1
                 	ADD  R31,R0
                 	.ENDM
                 
                 ;NAME DEFINITIONS FOR GLOBAL VARIABLES ALLOCATED TO REGISTERS
                 	.DEF _rx_wr_index0=R5
                 	.DEF _rx_rd_index0=R4
                 	.DEF _rx_counter0=R7
                 	.DEF _rx_buffer_overflow0=R6
                 	.DEF _mRcvErrFlag0=R9
                 	.DEF _rx_wr_index1=R8
                 	.DEF _rx_rd_index1=R11
                 	.DEF _rx_counter1=R10
                 	.DEF _rx_buffer_overflow1=R13
                 	.DEF _mRcvErrFlag1=R12
                 
                 	.CSEG
                 	.ORG 0x00
                 
                 ;START OF CODE MARKER
                 __START_OF_CODE:
                 
                 ;INTERRUPT VECTORS
000000 940c 00c1 	JMP  __RESET
000002 940c 0000 	JMP  0x00
000004 940c 0000 	JMP  0x00
000006 940c 0000 	JMP  0x00
000008 940c 0000 	JMP  0x00
00000a 940c 0000 	JMP  0x00
00000c 940c 0000 	JMP  0x00
00000e 940c 0000 	JMP  0x00
000010 940c 0000 	JMP  0x00
000012 940c 0000 	JMP  0x00
000014 940c 0000 	JMP  0x00
000016 940c 0000 	JMP  0x00
000018 940c 0000 	JMP  0x00
00001a 940c 0000 	JMP  0x00
00001c 940c 073e 	JMP  _timer1_ovf_isr
00001e 940c 0000 	JMP  0x00
000020 940c 0613 	JMP  _timer0_ovf_isr
000022 940c 0000 	JMP  0x00
000024 940c 057f 	JMP  _usart0_rx_isr
000026 940c 0000 	JMP  0x00
000028 940c 0000 	JMP  0x00
00002a 940c 0000 	JMP  0x00
00002c 940c 0000 	JMP  0x00
00002e 940c 0000 	JMP  0x00
000030 940c 0000 	JMP  0x00
000032 940c 0000 	JMP  0x00
000034 940c 0000 	JMP  0x00
000036 940c 0000 	JMP  0x00
000038 940c 0000 	JMP  0x00
00003a 940c 0000 	JMP  0x00
00003c 940c 051d 	JMP  _usart1_rx_isr
00003e 940c 0000 	JMP  0x00
000040 940c 0000 	JMP  0x00
000042 940c 0000 	JMP  0x00
000044 940c 0000 	JMP  0x00
                 
                 _VolArray:
000046 0b05
000047 1a12
000048 3328
000049 4a3f      	.DB  0x5,0xB,0x12,0x1A,0x28,0x33,0x3F,0x4A
00004a 5d55
00004b 7c6d
00004c 968a
C:\Users\YJW\Desktop\20210405_EP1G_YJW\List\EP1G.asm(1146): warning: .cseg .db misalignment - padding zero byte
00004d 00a0      	.DB  0x55,0x5D,0x6D,0x7C,0x8A,0x96,0xA0
                 _DacArray:
00004e 0000
00004f 4120
000050 0000
000051 41a0      	.DB  0x0,0x0,0x20,0x41,0x0,0x0,0xA0,0x41
000052 0000
000053 41f0
000054 cccd
000055 4220      	.DB  0x0,0x0,0xF0,0x41,0xCD,0xCC,0x20,0x42
000056 3333
000057 4153
000058 851f
000059 4187      	.DB  0x33,0x33,0x53,0x41,0x1F,0x85,0x87,0x41
00005a 3d71
00005b 41aa
00005c 8f5c
00005d 41ce      	.DB  0x71,0x3D,0xAA,0x41,0x5C,0x8F,0xCE,0x41
00005e 8f5c
00005f 41f4
000060 999a
000061 420d      	.DB  0x5C,0x8F,0xF4,0x41,0x9A,0x99,0xD,0x42
000062 0000
000063 4220
000064 999a
000065 425f      	.DB  0x0,0x0,0x20,0x42,0x9A,0x99,0x5F,0x42
                 _tbl10_G100:
000066 2710
000067 03e8
000068 0064
000069 000a      	.DB  0x10,0x27,0xE8,0x3,0x64,0x0,0xA,0x0
00006a 0001      	.DB  0x1,0x0
                 _tbl16_G100:
00006b 1000
00006c 0100
00006d 0010
00006e 0001      	.DB  0x0,0x10,0x0,0x1,0x10,0x0,0x1,0x0
                 
                 ;GLOBAL REGISTER VARIABLES INITIALIZATION
                 __REG_VARS:
00006f 0000
000070 0000      	.DB  0x0,0x0,0x0,0x0
000071 0000
000072 0000      	.DB  0x0,0x0,0x0,0x0
000073 0000      	.DB  0x0,0x0
                 
                 _0x60003:
000074 019c
000075 019f
000076 01ad
000077 01c9      	.DB  LOW(_IPC1_RCV_MODE),HIGH(_IPC1_RCV_MODE),LOW(_IPC1_RCV_RUN),HIGH(_IPC1_RCV_RUN),LOW(_IPC1_RCV_DOSE),HIGH(_IPC1_RCV_DOSE),LOW(_IPC1_RCV_VOLTAGE),HIGH(_IPC1_RCV_VOLTAGE)
000078 01e1
000079 01f2
00007a 0206
00007b 0222      	.DB  LOW(_IPC1_RCV_DEPTH),HIGH(_IPC1_RCV_DEPTH),LOW(_IPC1_RCV_SPEED),HIGH(_IPC1_RCV_SPEED),LOW(_IPC1_RCV_ELCOUNT),HIGH(_IPC1_RCV_ELCOUNT),LOW(_IPC1_RCV_FLAG),HIGH(_IPC1_RCV_FLAG)
00007c 0228
00007d 0245
00007e 0248
00007f 024b      	.DB  LOW(_IPC1_RCV_EL_MAP),HIGH(_IPC1_RCV_EL_MAP),LOW(_IPC1_RCV_MOTOR_POS1),HIGH(_IPC1_RCV_MOTOR_POS1),LOW(_IPC1_RCV_MOTOR_POS2),HIGH(_IPC1_RCV_MOTOR_POS2),LOW(_IPC1_RCV_ERROR),HIGH(_IPC1_RCV_ERROR)
                 _0x6001E:
000080 0272
000081 027f
000082 028b
000083 0297      	.DB  LOW(_IPC1_SND_MODE),HIGH(_IPC1_SND_MODE),LOW(_IPC1_SND_RUN),HIGH(_IPC1_SND_RUN),LOW(_IPC1_SND_DOSE),HIGH(_IPC1_SND_DOSE),LOW(_IPC1_SND_VOLTAGE),HIGH(_IPC1_SND_VOLTAGE)
000084 02a3
000085 02af
000086 02bb
000087 02c7      	.DB  LOW(_IPC1_SND_DEPTH),HIGH(_IPC1_SND_DEPTH),LOW(_IPC1_SND_SPEED),HIGH(_IPC1_SND_SPEED),LOW(_IPC1_SND_ELCOUNT),HIGH(_IPC1_SND_ELCOUNT),LOW(_IPC1_SND_FLAG),HIGH(_IPC1_SND_FLAG)
000088 02d7
000089 02f9
00008a 030d
00008b 0321      	.DB  LOW(_IPC1_SND_EL_MAP),HIGH(_IPC1_SND_EL_MAP),LOW(_IPC1_SND_MOTOR_POS1),HIGH(_IPC1_SND_MOTOR_POS1),LOW(_IPC1_SND_MOTOR_POS2),HIGH(_IPC1_SND_MOTOR_POS2),LOW(_IPC1_SND_ERROR),HIGH(_IPC1_SND_ERROR)
                 _0x6002F:
00008c 03b2
00008d 03e0
00008e 03fa
00008f 03fd      	.DB  LOW(_IPC0_RCV_MODE),HIGH(_IPC0_RCV_MODE),LOW(_IPC0_RCV_RUN),HIGH(_IPC0_RCV_RUN),LOW(_IPC0_RCV_DOSE),HIGH(_IPC0_RCV_DOSE),LOW(_IPC0_RCV_VOLTAGE),HIGH(_IPC0_RCV_VOLTAGE)
000090 0400
000091 0403
000092 0406
000093 0409      	.DB  LOW(_IPC0_RCV_DEPTH),HIGH(_IPC0_RCV_DEPTH),LOW(_IPC0_RCV_SPEED),HIGH(_IPC0_RCV_SPEED),LOW(_IPC0_RCV_ELCOUNT),HIGH(_IPC0_RCV_ELCOUNT),LOW(_IPC0_RCV_FLAG),HIGH(_IPC0_RCV_FLAG)
000094 0415
000095 0418
000096 0425
000097 0432      	.DB  LOW(_IPC0_RCV_EL_MAP),HIGH(_IPC0_RCV_EL_MAP),LOW(_IPC0_RCV_MOTOR_POS1),HIGH(_IPC0_RCV_MOTOR_POS1),LOW(_IPC0_RCV_MOTOR_POS2),HIGH(_IPC0_RCV_MOTOR_POS2),LOW(_IPC0_RCV_ERROR),HIGH(_IPC0_RCV_ERROR)
                 _0x6003D:
000098 0449
000099 044f
00009a 0454
00009b 0459      	.DB  LOW(_IPC0_SND_MODE),HIGH(_IPC0_SND_MODE),LOW(_IPC0_SND_RUN),HIGH(_IPC0_SND_RUN),LOW(_IPC0_SND_DOSE),HIGH(_IPC0_SND_DOSE),LOW(_IPC0_SND_VOLTAGE),HIGH(_IPC0_SND_VOLTAGE)
00009c 045e
00009d 0468
00009e 0463
00009f 046d      	.DB  LOW(_IPC0_SND_DEPTH),HIGH(_IPC0_SND_DEPTH),LOW(_IPC0_SND_SPEED),HIGH(_IPC0_SND_SPEED),LOW(_IPC0_SND_ELCOUNT),HIGH(_IPC0_SND_ELCOUNT),LOW(_IPC0_SND_FLAG),HIGH(_IPC0_SND_FLAG)
0000a0 0479
0000a1 047e
0000a2 0483
0000a3 0488      	.DB  LOW(_IPC0_SND_EL_MAP),HIGH(_IPC0_SND_EL_MAP),LOW(_IPC0_SND_MOTOR_POS1),HIGH(_IPC0_SND_MOTOR_POS1),LOW(_IPC0_SND_MOTOR_POS2),HIGH(_IPC0_SND_MOTOR_POS2),LOW(_IPC0_SND_ERROR),HIGH(_IPC0_SND_ERROR)
                 _0xE0003:
0000a4 1388      	.DB  0x88,0x13
                 _0x2080060:
C:\Users\YJW\Desktop\20210405_EP1G_YJW\List\EP1G.asm(1185): warning: .cseg .db misalignment - padding zero byte
0000a5 0001      	.DB  0x1
                 _0x2080000:
0000a6 4e2d
0000a7 4e41
0000a8 4900
0000a9 464e      	.DB  0x2D,0x4E,0x41,0x4E,0x0,0x49,0x4E,0x46
C:\Users\YJW\Desktop\20210405_EP1G_YJW\List\EP1G.asm(1188): warning: .cseg .db misalignment - padding zero byte
0000aa 0000      	.DB  0x0
                 
                 __GLOBAL_INI_TBL:
0000ab 000a      	.DW  0x0A
0000ac 0004      	.DW  0x04
0000ad 00de      	.DW  __REG_VARS*2
                 
0000ae 0018      	.DW  0x18
0000af 051f      	.DW  _IPC1Rcvfun
0000b0 00e8      	.DW  _0x60003*2
                 
0000b1 0018      	.DW  0x18
0000b2 0537      	.DW  _IPC1Sndfun
0000b3 0100      	.DW  _0x6001E*2
                 
0000b4 0018      	.DW  0x18
0000b5 054f      	.DW  _IPC0Rcvfun
0000b6 0118      	.DW  _0x6002F*2
                 
0000b7 0018      	.DW  0x18
0000b8 0567      	.DW  _IPC0Sndfun
0000b9 0130      	.DW  _0x6003D*2
                 
0000ba 0002      	.DW  0x02
0000bb 0784      	.DW  _gSetVolagteInitTime
0000bc 0148      	.DW  _0xE0003*2
                 
0000bd 0001      	.DW  0x01
0000be 078b      	.DW  __seed_G104
0000bf 014a      	.DW  _0x2080060*2
                 
                 _0xFFFFFFFF:
0000c0 0000      	.DW  0
                 
                 #define __GLOBAL_INI_TBL_PRESENT 1
                 
                 __RESET:
0000c1 94f8      	CLI
0000c2 27ee      	CLR  R30
0000c3 bbec      	OUT  EECR,R30
                 
                 ;INTERRUPT VECTORS ARE PLACED
                 ;AT THE START OF FLASH
0000c4 e0f1      	LDI  R31,1
0000c5 bff5      	OUT  MCUCR,R31
0000c6 bfe5      	OUT  MCUCR,R30
0000c7 93e0 006c 	STS  XMCRB,R30
                 
                 ;DISABLE WATCHDOG
0000c9 e1f8      	LDI  R31,0x18
0000ca bdf1      	OUT  WDTCR,R31
0000cb bde1      	OUT  WDTCR,R30
                 
                 ;CLEAR R2-R14
0000cc e08d      	LDI  R24,(14-2)+1
0000cd e0a2      	LDI  R26,2
0000ce 27bb      	CLR  R27
                 __CLEAR_REG:
0000cf 93ed      	ST   X+,R30
0000d0 958a      	DEC  R24
0000d1 f7e9      	BRNE __CLEAR_REG
                 
                 ;CLEAR SRAM
0000d2 e080      	LDI  R24,LOW(__CLEAR_SRAM_SIZE)
0000d3 e190      	LDI  R25,HIGH(__CLEAR_SRAM_SIZE)
0000d4 e0a0      	LDI  R26,LOW(__SRAM_START)
0000d5 e0b1      	LDI  R27,HIGH(__SRAM_START)
                 __CLEAR_SRAM:
0000d6 93ed      	ST   X+,R30
0000d7 9701      	SBIW R24,1
0000d8 f7e9      	BRNE __CLEAR_SRAM
                 
                 ;GLOBAL VARIABLES INITIALIZATION
0000d9 e5e6      	LDI  R30,LOW(__GLOBAL_INI_TBL*2)
0000da e0f1      	LDI  R31,HIGH(__GLOBAL_INI_TBL*2)
                 __GLOBAL_INI_NEXT:
0000db 9185      	LPM  R24,Z+
0000dc 9195      	LPM  R25,Z+
0000dd 9700      	SBIW R24,0
0000de f061      	BREQ __GLOBAL_INI_END
0000df 91a5      	LPM  R26,Z+
0000e0 91b5      	LPM  R27,Z+
0000e1 9005      	LPM  R0,Z+
0000e2 9015      	LPM  R1,Z+
0000e3 01bf      	MOVW R22,R30
0000e4 01f0      	MOVW R30,R0
                 __GLOBAL_INI_LOOP:
0000e5 9005      	LPM  R0,Z+
0000e6 920d      	ST   X+,R0
0000e7 9701      	SBIW R24,1
0000e8 f7e1      	BRNE __GLOBAL_INI_LOOP
0000e9 01fb      	MOVW R30,R22
0000ea cff0      	RJMP __GLOBAL_INI_NEXT
                 __GLOBAL_INI_END:
                 
0000eb bf8b      	OUT  RAMPZ,R24
                 
                 ;HARDWARE STACK POINTER INITIALIZATION
0000ec efef      	LDI  R30,LOW(__SRAM_END-__HEAP_SIZE)
0000ed bfed      	OUT  SPL,R30
0000ee e1e0      	LDI  R30,HIGH(__SRAM_END-__HEAP_SIZE)
0000ef bfee      	OUT  SPH,R30
                 
                 ;DATA STACK POINTER INITIALIZATION
0000f0 e0c0      	LDI  R28,LOW(__SRAM_START+__DSTACK_SIZE)
0000f1 e0d5      	LDI  R29,HIGH(__SRAM_START+__DSTACK_SIZE)
                 
0000f2 940c 0a86 	JMP  _main
                 
                 	.ESEG
                 	.ORG 0
                 
                 	.DSEG
                 	.ORG 0x500
                 
                 	.CSEG
                 ;#include <mega128.h>
                 	#ifndef __SLEEP_DEFINED__
                 	#define __SLEEP_DEFINED__
                 	.EQU __se_bit=0x20
                 	.EQU __sm_mask=0x1C
                 	.EQU __sm_powerdown=0x10
                 	.EQU __sm_powersave=0x18
                 	.EQU __sm_standby=0x14
                 	.EQU __sm_ext_standby=0x1C
                 	.EQU __sm_adc_noise_red=0x08
                 	.SET power_ctrl_reg=mcucr
                 	#endif
                 ;#include "InEepromLib.h"
                 ;
                 ;#define  EEWE    1
                 ;#define  EEMWE   2
                 ;#define  EERE    0
                 ;
                 ;void _EEPROMWrite( WORD addr, BYTE data )
                 ; 0000 0009 {
                 
                 	.CSEG
                 __EEPROMWrite:
                 ; .FSTART __EEPROMWrite
                 ; 0000 000A      while( EECR & (1 << EEWE) );
0000f4 93aa      	ST   -Y,R26
                 ;	addr -> Y+1
                 ;	data -> Y+0
                 _0x3:
0000f5 99e1      	SBIC 0x1C,1
0000f6 cffe      	RJMP _0x3
                 ; 0000 000B      EEAR = addr;
0000f7 81e9      	LDD  R30,Y+1
0000f8 81fa      	LDD  R31,Y+1+1
0000f9 bbff      	OUT  0x1E+1,R31
0000fa bbee      	OUT  0x1E,R30
                 ; 0000 000C      EEDR = data;
0000fb 81e8      	LD   R30,Y
0000fc bbed      	OUT  0x1D,R30
                 ; 0000 000D      EECR |= ( 1 << EEMWE);
0000fd 9ae2      	SBI  0x1C,2
                 ; 0000 000E      EECR |= ( 1 << EEWE);
0000fe 9ae1      	SBI  0x1C,1
                 ; 0000 000F }
0000ff 940c 0447 	JMP  _0x20A000E
                 ; .FEND
                 ;
                 ;BYTE _EEPROMRead( WORD addr)
                 ; 0000 0012 {
                 __EEPROMRead:
                 ; .FSTART __EEPROMRead
                 ; 0000 0013      while( EECR & (1 << EEWE) );
000101 93ba      	ST   -Y,R27
000102 93aa      	ST   -Y,R26
                 ;	addr -> Y+0
                 _0x6:
000103 99e1      	SBIC 0x1C,1
000104 cffe      	RJMP _0x6
                 ; 0000 0014      EEAR = addr;
000105 81e8      	LD   R30,Y
000106 81f9      	LDD  R31,Y+1
000107 bbff      	OUT  0x1E+1,R31
000108 bbee      	OUT  0x1E,R30
                 ; 0000 0015      EECR |= ( 1 << EERE);
000109 9ae0      	SBI  0x1C,0
                 ; 0000 0016      return EEDR;
00010a b3ed      	IN   R30,0x1D
00010b 940c 04a6 	JMP  _0x20A000C
                 ; 0000 0017 }
                 ; .FEND
                 ;BYTE E2pRead( WORD Addr )
                 ; 0000 0019 {
                 ; 0000 001A     return _EEPROMRead( Addr );
                 ;	Addr -> Y+0
                 ; 0000 001B }
                 ;void E2pReadLen( BYTE *bDat, BYTE bAddr, BYTE nLen )
                 ; 0000 001D {
                 _E2pReadLen:
                 ; .FSTART _E2pReadLen
                 ; 0000 001E     int i;
                 ; 0000 001F 
                 ; 0000 0020     for( i=0; i< nLen; i++ )
00010d 93aa      	ST   -Y,R26
00010e 940e 0ae7 	CALL SUBOPT_0x0
                 ;	*bDat -> Y+4
                 ;	bAddr -> Y+3
                 ;	nLen -> Y+2
                 ;	i -> R16,R17
                 _0xA:
000110 81ea      	LDD  R30,Y+2
000111 01d8      	MOVW R26,R16
000112 e0f0      	LDI  R31,0
000113 17ae      	CP   R26,R30
000114 07bf      	CPC  R27,R31
000115 f49c      	BRGE _0xB
                 ; 0000 0021     {
                 ; 0000 0022         bDat[i] = _EEPROMRead( bAddr+i );
000116 01f8      	MOVW R30,R16
000117 81ac      	LDD  R26,Y+4
000118 81bd      	LDD  R27,Y+4+1
000119 0fea      	ADD  R30,R26
00011a 1ffb      	ADC  R31,R27
00011b 93ff      	PUSH R31
00011c 93ef      	PUSH R30
00011d 01f8      	MOVW R30,R16
00011e 81ab      	LDD  R26,Y+3
00011f e0b0      	LDI  R27,0
000120 0fae      	ADD  R26,R30
000121 1fbf      	ADC  R27,R31
000122 dfde      	RCALL __EEPROMRead
000123 91af      	POP  R26
000124 91bf      	POP  R27
000125 93ec      	ST   X,R30
                 ; 0000 0023     }
                +
000126 5f0f     +SUBI R16 , LOW ( - 1 )
000127 4f1f     +SBCI R17 , HIGH ( - 1 )
                 	__ADDWRN 16,17,1
000128 cfe7      	RJMP _0xA
                 _0xB:
                 ; 0000 0024 }
000129 8119      	LDD  R17,Y+1
00012a 8108      	LDD  R16,Y+0
00012b 940c 019a 	JMP  _0x20A0010
                 ; .FEND
                 ;void E2pWriteLen( BYTE *bDat, BYTE bAddr, BYTE nLen )
                 ; 0000 0026 {
                 _E2pWriteLen:
                 ; .FSTART _E2pWriteLen
                 ; 0000 0027     int i;
                 ; 0000 0028     for( i=0; i< nLen; i++)
00012d 93aa      	ST   -Y,R26
00012e 940e 0ae7 	CALL SUBOPT_0x0
                 ;	*bDat -> Y+4
                 ;	bAddr -> Y+3
                 ;	nLen -> Y+2
                 ;	i -> R16,R17
                 _0xD:
000130 81ea      	LDD  R30,Y+2
000131 01d8      	MOVW R26,R16
000132 e0f0      	LDI  R31,0
000133 17ae      	CP   R26,R30
000134 07bf      	CPC  R27,R31
000135 f48c      	BRGE _0xE
                 ; 0000 0029     {
                 ; 0000 002A        _EEPROMWrite( bAddr+i, bDat[i] );
000136 01f8      	MOVW R30,R16
000137 81ab      	LDD  R26,Y+3
000138 e0b0      	LDI  R27,0
000139 0fea      	ADD  R30,R26
00013a 1ffb      	ADC  R31,R27
00013b 93fa      	ST   -Y,R31
00013c 93ea      	ST   -Y,R30
00013d 01f8      	MOVW R30,R16
00013e 81ae      	LDD  R26,Y+6
00013f 81bf      	LDD  R27,Y+6+1
000140 0fae      	ADD  R26,R30
000141 1fbf      	ADC  R27,R31
000142 91ac      	LD   R26,X
000143 dfb0      	RCALL __EEPROMWrite
                 ; 0000 002B     }
                +
000144 5f0f     +SUBI R16 , LOW ( - 1 )
000145 4f1f     +SBCI R17 , HIGH ( - 1 )
                 	__ADDWRN 16,17,1
000146 cfe9      	RJMP _0xD
                 _0xE:
                 ; 0000 002C }
000147 8119      	LDD  R17,Y+1
000148 8108      	LDD  R16,Y+0
000149 940c 019a 	JMP  _0x20A0010
                 ; .FEND
                 ;#include <mega128.h>
                 	#ifndef __SLEEP_DEFINED__
                 	#endif
                 ;#include <stdio.h>
                 ;#include  "I2CLib.h"
                 ;
                 ;BYTE I2C_WriteSeq( BYTE ChipAddr,WORD address, BYTE *Data, WORD Count )
                 ; 0001 0006 {
                 
                 	.CSEG
                 ; 0001 0007      WORD i;
                 ; 0001 0008 
                 ; 0001 0009 #ifdef CFG_I2C_HIGH_ADDRESS
                 ; 0001 000A    if( address > 0x1fff)
                 ; 0001 000B        return ERROR;
                 ; 0001 000C #else
                 ; 0001 000D    if( address > 0xff)
                 ;	ChipAddr -> Y+8
                 ;	address -> Y+6
                 ;	*Data -> Y+4
                 ;	Count -> Y+2
                 ;	i -> R16,R17
                 ; 0001 000E        return ERROR;
                 ; 0001 000F #endif
                 ; 0001 0010      /* Start */
                 ; 0001 0011      I2C_Start();
                 ; 0001 0012      /*Device Address & Write mode */
                 ; 0001 0013      I2C_ShiftOut( (BYTE)(ChipAddr&0xff) );
                 ; 0001 0014      I2C_Ack();
                 ; 0001 0015 
                 ; 0001 0016 #ifdef CFG_I2C_HIGH_ADDRESS
                 ; 0001 0017      I2C_ShiftOut( (address>>8)&0xff ); /* High Address */
                 ; 0001 0018      I2C_Ack();
                 ; 0001 0019 #endif
                 ; 0001 001A 
                 ; 0001 001B      I2C_ShiftOut( (BYTE)(ChipAddr&0xff) );   /* Low Address */
                 ; 0001 001C      I2C_Ack();
                 ; 0001 001D 
                 ; 0001 001E      for( i=0; i< Count; i++ )
                 ; 0001 001F      {
                 ; 0001 0020     /* Data Read  */
                 ; 0001 0021     I2C_ShiftOut( Data[i] );
                 ; 0001 0022            I2C_Ack();
                 ; 0001 0023      }
                 ; 0001 0024     // I2C_Ack();
                 ; 0001 0025 
                 ; 0001 0026      /** bring SDA high while clock is high */
                 ; 0001 0027      I2C_Stop();
                 ; 0001 0028 
                 ; 0001 0029      //for( i=0; i<500; i++ )
                 ; 0001 002A            i2c_delay();        /* 10mSec delay(no test) */
                 ; 0001 002B 
                 ; 0001 002C      return OK;
                 ; 0001 002D }
                 ;
                 ;
                 ;BYTE I2C_Write( BYTE ChipAddr, WORD address, BYTE dat )
                 ; 0001 0031 {
                 ; 0001 0032    //WORD i;
                 ; 0001 0033 
                 ; 0001 0034 #ifdef CFG_I2C_HIGH_ADDRESS
                 ; 0001 0035    if( address > 0x1fff)
                 ; 0001 0036        return ERROR;
                 ; 0001 0037 #else
                 ; 0001 0038    if( address > 0xff)
                 ;	ChipAddr -> Y+3
                 ;	address -> Y+1
                 ;	dat -> Y+0
                 ; 0001 0039        return ERROR;
                 ; 0001 003A #endif
                 ; 0001 003B 
                 ; 0001 003C    I2C_Start();  // Start
                 ; 0001 003D 
                 ; 0001 003E    // Device Address & Write mode
                 ; 0001 003F    I2C_ShiftOut( ChipAddr&0xfe );
                 ; 0001 0040    I2C_Ack();
                 ; 0001 0041 
                 ; 0001 0042 #ifdef   CFG_I2C_HIGH_ADDRESS
                 ; 0001 0043    // High Address
                 ; 0001 0044    I2C_ShiftOut( (address>>8)&0xff );
                 ; 0001 0045    I2C_Ack();
                 ; 0001 0046 #endif
                 ; 0001 0047 
                 ; 0001 0048    // Low Address
                 ; 0001 0049    I2C_ShiftOut( address&0xff );
                 ; 0001 004A    I2C_Ack();
                 ; 0001 004B 
                 ; 0001 004C    I2C_ShiftOut( dat );     // write data
                 ; 0001 004D    I2C_Ack();
                 ; 0001 004E 
                 ; 0001 004F    // bring SDA high while clock is high
                 ; 0001 0050    I2C_Stop();
                 ; 0001 0051 
                 ; 0001 0052    //for( i=0; i<400; i++ )
                 ; 0001 0053         i2c_delay();        //10mSec delay(no test)
                 ; 0001 0054 
                 ; 0001 0055    return OK;
                 ; 0001 0056 }
                 ;
                 ;void i2c_delay(void)
                 ; 0001 0059 {
                 _i2c_delay:
                 ; .FSTART _i2c_delay
                 ; 0001 005A   // int i;
                 ; 0001 005B 
                 ; 0001 005C //   for( i=0; i<10;i++ )    //
                 ; 0001 005D  //    for( i=0; i<2;i++ )    //
                 ; 0001 005E 
                 ; 0001 005F        #asm( "nop" );
00014b 0000      	nop
                 ; 0001 0060 }
00014c 9508      	RET
                 ; .FEND
                 ;
                 ;BYTE I2C_Ack(void )
                 ; 0001 0063 {
                 ; 0001 0064      BYTE Ack;
                 ; 0001 0065 
                 ; 0001 0066      HIGH_SDA;
                 ;	Ack -> R17
                 ; 0001 0067 
                 ; 0001 0068      I2C_R_MODE; //DDRC.2 = 0;
                 ; 0001 0069      HIGH_SCLK;
                 ; 0001 006A      i2c_delay();
                 ; 0001 006B      Ack = IN_SDA;
                 ; 0001 006C      i2c_delay();
                 ; 0001 006D      LOW_SCLK;
                 ; 0001 006E 
                 ; 0001 006F      I2C_W_MODE; //DDRC.2 = 1;
                 ; 0001 0070      i2c_delay();
                 ; 0001 0071 
                 ; 0001 0072      if( Ack )
                 ; 0001 0073         return ERROR;
                 ; 0001 0074 
                 ; 0001 0075      return OK;
                 ; 0001 0076 }
                 ;
                 ;BYTE I2C_OutAck( BYTE Flag  )
                 ; 0001 0079 {
                 ; 0001 007A        //BYTE Ack;
                 ; 0001 007B 
                 ; 0001 007C        if( Flag )    HIGH_SDA;
                 ;	Flag -> Y+0
                 ; 0001 007D         else        LOW_SDA;
                 ; 0001 007E        /*LOW_SCLK; */
                 ; 0001 007F 
                 ; 0001 0080        /*i2c_delay(); */
                 ; 0001 0081        HIGH_SCLK;
                 ; 0001 0082       // Ack = IN_SDA;//ioport1&0x80;
                 ; 0001 0083        i2c_delay();
                 ; 0001 0084        LOW_SCLK;
                 ; 0001 0085 
                 ; 0001 0086        i2c_delay();
                 ; 0001 0087 
                 ; 0001 0088        //if( Ack )
                 ; 0001 0089 //    return ERROR;
                 ; 0001 008A 
                 ; 0001 008B        return OK;
                 ; 0001 008C }
                 ;
                 ;
                 ;BYTE I2C_ReadSeq( BYTE ChipAddr,WORD address, BYTE *Data, WORD Count )
                 ; 0001 0090 {
                 ; 0001 0091      WORD i;
                 ; 0001 0092 
                 ; 0001 0093 #ifdef CFG_I2C_HIGH_ADDRESS
                 ; 0001 0094    if( address > 0x1fff)
                 ; 0001 0095        return ERROR;
                 ; 0001 0096 #else
                 ; 0001 0097    if( address > 0xff)
                 ;	ChipAddr -> Y+8
                 ;	address -> Y+6
                 ;	*Data -> Y+4
                 ;	Count -> Y+2
                 ;	i -> R16,R17
                 ; 0001 0098        return ERROR;
                 ; 0001 0099 #endif
                 ; 0001 009A      /* Start */
                 ; 0001 009B      I2C_Start();
                 ; 0001 009C      // Device Address & Write mod
                 ; 0001 009D      I2C_ShiftOut( (BYTE)(ChipAddr&0xff) );
                 ; 0001 009E      I2C_Ack();
                 ; 0001 009F 
                 ; 0001 00A0 #ifdef CFG_I2C_HIGH_ADDRESS
                 ; 0001 00A1      // High Address
                 ; 0001 00A2      I2C_ShiftOut( (address>>8)&0xff );
                 ; 0001 00A3      I2C_Ack();
                 ; 0001 00A4 #endif
                 ; 0001 00A5      // Low Address
                 ; 0001 00A6      I2C_ShiftOut( address&0xff );
                 ; 0001 00A7      I2C_Ack();
                 ; 0001 00A8 
                 ; 0001 00A9      /* Start */
                 ; 0001 00AA      I2C_Start();
                 ; 0001 00AB      /*Device Address & Read mode */
                 ; 0001 00AC      I2C_ShiftOut( 0x01|(BYTE)(ChipAddr&0xff) );
                 ; 0001 00AD      I2C_Ack();
                 ; 0001 00AE 
                 ; 0001 00AF      for( i=0; i< Count-1; i++ )
                 ; 0001 00B0      {
                 ; 0001 00B1      /* Data Read  */
                 ; 0001 00B2      Data[i] = I2C_ShiftIn();
                 ; 0001 00B3            // I2C_Ack();
                 ; 0001 00B4            I2C_OutAck( FALSE );
                 ; 0001 00B5      }
                 ; 0001 00B6       Data[i] =    I2C_ShiftIn();
                 ; 0001 00B7       I2C_OutAck( TRUE );
                 ; 0001 00B8      //I2C_Ack();
                 ; 0001 00B9      /** bring SDA high while clock is high */
                 ; 0001 00BA      I2C_Stop();
                 ; 0001 00BB 
                 ; 0001 00BC      return OK;
                 ; 0001 00BD }
                 ;
                 ;BYTE I2C_Read( BYTE ChipAddr, WORD address )
                 ; 0001 00C0 {
                 ; 0001 00C1      BYTE Dat;
                 ; 0001 00C2 
                 ; 0001 00C3 #ifdef CFG_I2C_HIGH_ADDRESS
                 ; 0001 00C4    if( address > 0x1fff)
                 ; 0001 00C5        return ERROR;
                 ; 0001 00C6 #else
                 ; 0001 00C7    if( address > 0xff)
                 ;	ChipAddr -> Y+3
                 ;	address -> Y+1
                 ;	Dat -> R17
                 ; 0001 00C8        return ERROR;
                 ; 0001 00C9 #endif
                 ; 0001 00CA 
                 ; 0001 00CB      I2C_Start();   // Start
                 ; 0001 00CC 
                 ; 0001 00CD      /*Device Address & Write mode */
                 ; 0001 00CE      I2C_ShiftOut( (BYTE)(ChipAddr&0xff) );
                 ; 0001 00CF      I2C_Ack();
                 ; 0001 00D0 
                 ; 0001 00D1 #ifdef CFG_I2C_HIGH_ADDRESS
                 ; 0001 00D2      // High Address
                 ; 0001 00D3      I2C_ShiftOut( (address>>8)&0xff );
                 ; 0001 00D4      I2C_Ack();
                 ; 0001 00D5 #endif
                 ; 0001 00D6 
                 ; 0001 00D7      // Low Address
                 ; 0001 00D8      I2C_ShiftOut( address&0xff );
                 ; 0001 00D9      I2C_Ack();
                 ; 0001 00DA 
                 ; 0001 00DB      // Start
                 ; 0001 00DC      I2C_Start();
                 ; 0001 00DD      // Device Address & Read mode
                 ; 0001 00DE      I2C_ShiftOut( 0x01| (BYTE)(ChipAddr&0xff) );
                 ; 0001 00DF 
                 ; 0001 00E0      I2C_Ack();
                 ; 0001 00E1 
                 ; 0001 00E2       // Data Read
                 ; 0001 00E3       Dat = I2C_ShiftIn();
                 ; 0001 00E4       I2C_Ack();
                 ; 0001 00E5 
                 ; 0001 00E6       /** bring SDA high while clock is high */
                 ; 0001 00E7       I2C_Stop();
                 ; 0001 00E8 
                 ; 0001 00E9      return Dat;
                 ; 0001 00EA }
                 ;/*
                 ;BYTE I2C_Read( BYTE ChipAddr, WORD address )
                 ;{
                 ;     BYTE Dat;
                 ;
                 ;#ifdef CFG_I2C_HIGH_ADDRESS
                 ;   if( address > 0x1fff)
                 ;       return ERROR;
                 ;#else
                 ;   if( address > 0xff)
                 ;       return ERROR;
                 ;#endif
                 ;
                 ;     I2C_Start();   // Start
                 ;
                 ;     //Device Address & Write mode
                 ;     I2C_ShiftOut(  (BYTE)((ChipAddr<<1)&0x0e) );
                 ;     I2C_Ack();
                 ;
                 ;#ifdef CFG_I2C_HIGH_ADDRESS
                 ;     // High Address
                 ;     I2C_ShiftOut( (address>>8)&0xff );
                 ;     I2C_Ack();
                 ;#endif
                 ;
                 ;     // Low Address
                 ;     I2C_ShiftOut( address&0xff );
                 ;
                 ;     I2C_Ack();
                 ;
                 ;     // Start
                 ;     I2C_Start();
                 ;
                 ;     // Device Address & Read mode
                 ;     I2C_ShiftOut( 0x01| (BYTE)((ChipAddr<<1)&0x0e)  );
                 ;
                 ;     I2C_Ack();
                 ;
                 ;      // Data Read
                 ;      Dat = I2C_ShiftIn();
                 ;
                 ;      I2C_Ack();
                 ;
                 ;      // bring SDA high while clock is high
                 ;            I2C_Stop();
                 ;
                 ;     return Dat;
                 ;}
                 ;*/
                 ;void I2C_Start(void )
                 ; 0001 011D {
                 ; 0001 011E       HIGH_SDA;    /* high serial data  */
                 ; 0001 011F       HIGH_SCLK;   /* high serial clock */
                 ; 0001 0120       i2c_delay();
                 ; 0001 0121       LOW_SDA;     /* low  serial data */
                 ; 0001 0122       i2c_delay();
                 ; 0001 0123       LOW_SCLK;    /* low  serial clock */
                 ; 0001 0124       i2c_delay();
                 ; 0001 0125 }
                 ;
                 ;void I2C_Stop( void )
                 ; 0001 0128 {
                 ; 0001 0129      LOW_SCLK;
                 ; 0001 012A      LOW_SDA;      /* low serial data */
                 ; 0001 012B      i2c_delay();
                 ; 0001 012C      HIGH_SCLK;    /* high serial clock */
                 ; 0001 012D      i2c_delay();
                 ; 0001 012E      HIGH_SDA;     /* high serial data      */
                 ; 0001 012F }
                 ;
                 ;void I2C_ShiftOut( BYTE dat )
                 ; 0001 0132 {
                 ; 0001 0133      BYTE i,temp;
                 ; 0001 0134 
                 ; 0001 0135      for( i=0; i<8; i++ )
                 ;	dat -> Y+2
                 ;	i -> R17
                 ;	temp -> R16
                 ; 0001 0136      {
                 ; 0001 0137         /* right shift */
                 ; 0001 0138         temp = dat & ( 0x80>>i );
                 ; 0001 0139 
                 ; 0001 013A        if( temp )   HIGH_SDA;    /* high data   */
                 ; 0001 013B        else         LOW_SDA;
                 ; 0001 013C        i2c_delay();
                 ; 0001 013D        HIGH_SCLK;              /* high clock   */
                 ; 0001 013E        i2c_delay();
                 ; 0001 013F        LOW_SCLK;               /* low clock    */
                 ; 0001 0140        i2c_delay();
                 ; 0001 0141      }
                 ; 0001 0142 }
                 ;
                 ;BYTE I2C_ShiftIn( void )
                 ; 0001 0145 {
                 ; 0001 0146      BYTE i=0,temp;
                 ; 0001 0147      BYTE Dat=0;
                 ; 0001 0148 
                 ; 0001 0149      HIGH_SDA;
                 ;	i -> R17
                 ;	temp -> R16
                 ;	Dat -> R19
                 ; 0001 014A      I2C_R_MODE;      // input mode
                 ; 0001 014B      for( i=0; i<8; i++ )
                 ; 0001 014C      {
                 ; 0001 014D           //  HIGH_SDA;
                 ; 0001 014E           HIGH_SCLK;         /* high serial clock    */
                 ; 0001 014F           i2c_delay();
                 ; 0001 0150 
                 ; 0001 0151           temp = IN_SDA;     // &0x80;
                 ; 0001 0152           Dat |= ( temp<<(7-i) );
                 ; 0001 0153 
                 ; 0001 0154           i2c_delay();
                 ; 0001 0155           LOW_SCLK;          /* low serial clock; */
                 ; 0001 0156           i2c_delay();
                 ; 0001 0157      }
                 ; 0001 0158 
                 ; 0001 0159       I2C_W_MODE;   // output mode
                 ; 0001 015A 
                 ; 0001 015B      return Dat;
                 ; 0001 015C }
                 ;#include <mega128.h>
                 	#ifndef __SLEEP_DEFINED__
                 	#endif
                 ;#include <stdio.h>
                 ;#include <string.h>
                 ;#include <delay.h>
                 ;#include <float.h>
                 ;
                 ;#include "DAC7611.h"
                 ;#include "../I2cLib/I2CLib.h"
                 ;
                 ;//const BYTE VolArray[15] = {4, 8, 14, 21, 30, 40, 50, 65, 82, 93, 110, 124, 138, 150, 160};
                 ;//const BYTE VolArray[15] = {5, 8, 14, 20, 30, 40, 53, 65, 82, 93, 110, 124, 138, 150, 160};
                 ;
                 ;                           //20 30 40  50  60  70  80  90  100 110 120  130  140  150  160   2020-10-21
                 ;const BYTE VolArray[15] =   {5, 11, 18, 26, 40, 51, 63, 74, 85, 93, 109, 124, 138, 150, 160};
                 ;
                 ;void DAC7611_init( void )
                 ; 0002 0011 {
                 
                 	.CSEG
                 _DAC7611_init:
                 ; .FSTART _DAC7611_init
                 ; 0002 0012    DAC7611_Write( 0 );
00014d e0a0      	LDI  R26,LOW(0)
00014e e0b0      	LDI  R27,0
00014f d021      	RCALL _DAC7611_Write
                 ; 0002 0013 }
000150 9508      	RET
                 ; .FEND
                 ;
                 ;void DAC7611_WriteVoltage( int data )
                 ; 0002 0016 {
                 _DAC7611_WriteVoltage:
                 ; .FSTART _DAC7611_WriteVoltage
                 ; 0002 0017    WORD temp;
                 ; 0002 0018    int mRefVol;
                 ; 0002 0019 
                 ; 0002 001A    if(data < 20 )
000151 940e 0aec 	CALL SUBOPT_0x1
                 ;	data -> Y+4
                 ;	temp -> R16,R17
                 ;	mRefVol -> R18,R19
000153 81ac      	LDD  R26,Y+4
000154 81bd      	LDD  R27,Y+4+1
000155 9754      	SBIW R26,20
000156 f41c      	BRGE _0x40003
                 ; 0002 001B    {
                 ; 0002 001C       mRefVol = 0;
                +
000157 e020     +LDI R18 , LOW ( 0 )
000158 e030     +LDI R19 , HIGH ( 0 )
                 	__GETWRN 18,19,0
                 ; 0002 001D    }
                 ; 0002 001E    else
000159 c009      	RJMP _0x40004
                 _0x40003:
                 ; 0002 001F    {
                 ; 0002 0020       mRefVol =  (data-20)/10;
00015a 81ac      	LDD  R26,Y+4
00015b 81bd      	LDD  R27,Y+4+1
00015c 940e 0af1 	CALL SUBOPT_0x2
00015e 019f      	MOVW R18,R30
                 ; 0002 0021       mRefVol = VolArray[mRefVol];
00015f 57e4      	SUBI R30,LOW(-_VolArray*2)
000160 4fff      	SBCI R31,HIGH(-_VolArray*2)
000161 9124      	LPM  R18,Z
000162 2733      	CLR  R19
                 ; 0002 0022    }
                 _0x40004:
                 ; 0002 0023 
                 ; 0002 0024    temp = (WORD)(4095.0f/160.0f* (float)mRefVol);
000163 940e 0af7 	CALL SUBOPT_0x3
                +
000165 e0a0     +LDI R26 , LOW ( 0x41CCC000 )
000166 ecb0     +LDI R27 , HIGH ( 0x41CCC000 )
000167 ec8c     +LDI R24 , BYTE3 ( 0x41CCC000 )
000168 e491     +LDI R25 , BYTE4 ( 0x41CCC000 )
                 	__GETD2N 0x41CCC000
000169 940e 0e94 	CALL __MULF12
00016b 940e 0dd1 	CALL __CFD1U
00016d 018f      	MOVW R16,R30
                 ; 0002 0025 
                 ; 0002 0026    DAC7611_Write( temp );
00016e 01d8      	MOVW R26,R16
00016f d001      	RCALL _DAC7611_Write
                 ; 0002 0027 }
000170 c027      	RJMP _0x20A000F
                 ; .FEND
                 ;
                 ;void DAC7611_Write( WORD data )
                 ; 0002 002A {
                 _DAC7611_Write:
                 ; .FSTART _DAC7611_Write
                 ; 0002 002B      int i;
                 ; 0002 002C      WORD temp;
                 ; 0002 002D 
                 ; 0002 002E      HIGH_LD;
000171 940e 0aec 	CALL SUBOPT_0x1
                 ;	data -> Y+4
                 ;	i -> R16,R17
                 ;	temp -> R18,R19
000173 9adb      	SBI  0x1B,3
                 ; 0002 002F      HIGH_SCLK;
000174 9ad9      	SBI  0x1B,1
                 ; 0002 0030      LOW_CS;
000175 98da      	CBI  0x1B,2
                 ; 0002 0031 
                 ; 0002 0032      for( i=0; i<12; i++ )
                +
000176 e000     +LDI R16 , LOW ( 0 )
000177 e010     +LDI R17 , HIGH ( 0 )
                 	__GETWRN 16,17,0
                 _0x4000C:
                +
000178 300c     +CPI R16 , LOW ( 12 )
000179 e0e0     +LDI R30 , HIGH ( 12 )
00017a 071e     +CPC R17 , R30
                 	__CPWRN 16,17,12
00017b f4c4      	BRGE _0x4000D
                 ; 0002 0033      {
                 ; 0002 0034         /* right shift */
                 ; 0002 0035        temp = data & ( 0x800>>i );
00017c 2fe0      	MOV  R30,R16
00017d e0a0      	LDI  R26,LOW(2048)
00017e e0b8      	LDI  R27,HIGH(2048)
00017f 940e 0f63 	CALL __LSRW12
000181 81ac      	LDD  R26,Y+4
000182 81bd      	LDD  R27,Y+4+1
000183 23ea      	AND  R30,R26
000184 23fb      	AND  R31,R27
000185 019f      	MOVW R18,R30
                 ; 0002 0036 
                 ; 0002 0037        if( temp ) HIGH_SDA;    /* high data  */
000186 2e02      	MOV  R0,R18
000187 2a03      	OR   R0,R19
000188 f011      	BREQ _0x4000E
000189 9ad8      	SBI  0x1B,0
                 ; 0002 0038        else       LOW_SDA;
00018a c001      	RJMP _0x40011
                 _0x4000E:
00018b 98d8      	CBI  0x1B,0
                 ; 0002 0039 
                 ; 0002 003A        i2c_delay();
                 _0x40011:
00018c dfbe      	RCALL _i2c_delay
                 ; 0002 003B        LOW_SCLK;          /* high clock */
00018d 98d9      	CBI  0x1B,1
                 ; 0002 003C        i2c_delay();
00018e dfbc      	RCALL _i2c_delay
                 ; 0002 003D        HIGH_SCLK;         /* low clock    */
00018f 9ad9      	SBI  0x1B,1
                 ; 0002 003E        i2c_delay();
000190 dfba      	RCALL _i2c_delay
                 ; 0002 003F      }
                +
000191 5f0f     +SUBI R16 , LOW ( - 1 )
000192 4f1f     +SBCI R17 , HIGH ( - 1 )
                 	__ADDWRN 16,17,1
000193 cfe4      	RJMP _0x4000C
                 _0x4000D:
                 ; 0002 0040 
                 ; 0002 0041      HIGH_CS;
000194 9ada      	SBI  0x1B,2
                 ; 0002 0042 
                 ; 0002 0043      LOW_LD;
000195 98db      	CBI  0x1B,3
                 ; 0002 0044      i2c_delay();
000196 dfb4      	RCALL _i2c_delay
                 ; 0002 0045      HIGH_LD;
000197 9adb      	SBI  0x1B,3
                 ; 0002 0046 }
                 _0x20A000F:
000198 940e 0fc5 	CALL __LOADLOCR4
                 _0x20A0010:
00019a 9626      	ADIW R28,6
00019b 9508      	RET
                 ; .FEND
                 ;#include <stdio.h>
                 	#ifndef __SLEEP_DEFINED__
                 	#endif
                 ;#include "IPCLib.h"
                 ;#include <string.h>
                 ;#include <math.h>
                 ;#include "../Uart/uart.h"
                 ;#include "../I2CLib/I2CLIb.h"
                 ;#include "../InADC/InAdc.h"
                 ;#include "../DAC7611/DAC7611.h"
                 ;
                 ;extern BYTE gElMatrix[4];
                 ;extern WORD goldTime1ms;
                 ;extern WORD gTime1ms;
                 ;extern int gVoltage;
                 ;extern BYTE gMode;
                 ;extern BOOL gRunFlag;
                 ;extern int gDose;
                 ;extern int gDepth;
                 ;extern int gSpeed;
                 ;extern BYTE gFlag;
                 ;extern BYTE gError;
                 ;extern int gMotorPos1;
                 ;extern int gMotorPos2;
                 ;extern BOOL gElCompletFlag;
                 ;extern int  gElCount;
                 ;//extern int  gReadVol;
                 ;extern BYTE gCurMode;
                 ;extern BOOL gReadyActionFlag;
                 ;extern int  gVolChkCount;
                 ;
                 ;extern void SaveInEeprom( void );
                 ;BYTE IPC1_RCV_MODE( LPIPC_HEADER pHead );
                 ;BYTE IPC1_RCV_RUN( LPIPC_HEADER pHead );
                 ;BYTE IPC1_RCV_DOSE( LPIPC_HEADER pHead );
                 ;BYTE IPC1_RCV_VOLTAGE( LPIPC_HEADER pHead );
                 ;BYTE IPC1_RCV_DEPTH( LPIPC_HEADER pHead );
                 ;BYTE IPC1_RCV_SPEED( LPIPC_HEADER pHead );
                 ;BYTE IPC1_RCV_ELCOUNT( LPIPC_HEADER pHead );
                 ;BYTE IPC1_RCV_FLAG( LPIPC_HEADER pHead );
                 ;BYTE IPC1_RCV_EL_MAP( LPIPC_HEADER pHead );
                 ;BYTE IPC1_RCV_MOTOR_POS1( LPIPC_HEADER pHead );
                 ;BYTE IPC1_RCV_MOTOR_POS2( LPIPC_HEADER pHead );
                 ;BYTE IPC1_RCV_ERROR( LPIPC_HEADER pHead );
                 ;typedef BYTE(*RunFun) (LPIPC_HEADER pHead );
                 ;
                 ;RunFun IPC1Rcvfun[]=
                 ;{
                 ;     IPC1_RCV_MODE,
                 ;     IPC1_RCV_RUN,
                 ;     IPC1_RCV_DOSE,
                 ;     IPC1_RCV_VOLTAGE,
                 ;     IPC1_RCV_DEPTH,
                 ;     IPC1_RCV_SPEED,
                 ;     IPC1_RCV_ELCOUNT,
                 ;     IPC1_RCV_FLAG,
                 ;     IPC1_RCV_EL_MAP,
                 ;     IPC1_RCV_MOTOR_POS1,
                 ;     IPC1_RCV_MOTOR_POS2,
                 ;     IPC1_RCV_ERROR
                 ;};
                 
                 	.DSEG
                 ;
                 ;BYTE IPC1_RCV_MODE( LPIPC_HEADER pHead )
                 ; 0003 003E {
                 
                 	.CSEG
                 _IPC1_RCV_MODE:
                 ; .FSTART _IPC1_RCV_MODE
                 ; 0003 003F     return TRUE;
00019c 93ba      	ST   -Y,R27
00019d 93aa      	ST   -Y,R26
                 ;	*pHead -> Y+0
00019e c306      	RJMP _0x20A000B
                 ; 0003 0040 }
                 ; .FEND
                 ;
                 ;BYTE IPC1_RCV_RUN( LPIPC_HEADER pHead )
                 ; 0003 0043 {
                 _IPC1_RCV_RUN:
                 ; .FSTART _IPC1_RCV_RUN
                 ; 0003 0044    //gRunFlag =  pHead->data1;
                 ; 0003 0045    //gRunFlag = gRunFlag?TRUE:FALSE;
                 ; 0003 0046    BOOL mFlag =  pHead->data1? TRUE:FALSE;
                 ; 0003 0047    if( mFlag )
00019f 940e 0afd 	CALL SUBOPT_0x4
                 ;	*pHead -> Y+1
                 ;	mFlag -> R17
0001a1 81e3      	LDD  R30,Z+3
0001a2 30e0      	CPI  R30,0
0001a3 f011      	BREQ _0x60004
0001a4 e0e1      	LDI  R30,LOW(1)
0001a5 c001      	RJMP _0x60005
                 _0x60004:
0001a6 e0e0      	LDI  R30,LOW(0)
                 _0x60005:
0001a7 2f1e      	MOV  R17,R30
0001a8 3010      	CPI  R17,0
0001a9 f011      	BREQ _0x60007
                 ; 0003 0048        SaveInEeprom();
0001aa 940e 081e 	CALL _SaveInEeprom
                 ; 0003 0049 
                 ; 0003 004A    return TRUE;
                 _0x60007:
0001ac c298      	RJMP _0x20A000D
                 ; 0003 004B }
                 ; .FEND
                 ;
                 ;BYTE IPC1_RCV_DOSE( LPIPC_HEADER pHead )
                 ; 0003 004E {
                 _IPC1_RCV_DOSE:
                 ; .FSTART _IPC1_RCV_DOSE
                 ; 0003 004F    gDose = pHead->data2 | ((int)pHead->data1<<8);
0001ad 940e 0b03 	CALL SUBOPT_0x5
                 ;	*pHead -> Y+0
0001af 81a4      	LDD  R26,Z+4
0001b0 81e8      	LD   R30,Y
0001b1 81f9      	LDD  R31,Y+1
0001b2 81e3      	LDD  R30,Z+3
0001b3 2ffe      	MOV  R31,R30
0001b4 e0e0      	LDI  R30,0
0001b5 2bea      	OR   R30,R26
0001b6 940e 0b08 	CALL SUBOPT_0x6
                 ; 0003 0050    if( gDose < 0 ) gDose = 0;
0001b8 91a0 050d 	LDS  R26,_gDose+1
0001ba 23aa      	TST  R26
0001bb f412      	BRPL _0x60008
0001bc 940e 0b0d 	CALL SUBOPT_0x7
                 ; 0003 0051    if( gDose > 3 ) gDose = 3;
                 _0x60008:
0001be 91a0 050c 	LDS  R26,_gDose
0001c0 91b0 050d 	LDS  R27,_gDose+1
0001c2 9714      	SBIW R26,4
0001c3 f024      	BRLT _0x60009
0001c4 e0e3      	LDI  R30,LOW(3)
0001c5 e0f0      	LDI  R31,HIGH(3)
0001c6 940e 0b08 	CALL SUBOPT_0x6
                 ; 0003 0052 
                 ; 0003 0053    return TRUE;
                 _0x60009:
0001c8 c2dc      	RJMP _0x20A000B
                 ; 0003 0054 }
                 ; .FEND
                 ;
                 ;BYTE IPC1_RCV_VOLTAGE( LPIPC_HEADER pHead )
                 ; 0003 0057 {
                 _IPC1_RCV_VOLTAGE:
                 ; .FSTART _IPC1_RCV_VOLTAGE
                 ; 0003 0058    gVoltage = pHead->data1;
0001c9 940e 0b03 	CALL SUBOPT_0x5
                 ;	*pHead -> Y+0
0001cb 81e3      	LDD  R30,Z+3
0001cc 940e 0b13 	CALL SUBOPT_0x8
                 ; 0003 0059    if( gVoltage < 60 ) gVoltage = 60;
0001ce f414      	BRGE _0x6000A
0001cf 940e 0b1e 	CALL SUBOPT_0x9
                 ; 0003 005A    if( gVoltage > 120 ) gVoltage = 120;
                 _0x6000A:
0001d1 940e 0b25 	CALL SUBOPT_0xA
0001d3 37a9      	CPI  R26,LOW(0x79)
0001d4 e0e0      	LDI  R30,HIGH(0x79)
0001d5 07be      	CPC  R27,R30
0001d6 f014      	BRLT _0x6000B
0001d7 940e 0b2a 	CALL SUBOPT_0xB
                 ; 0003 005B 
                 ; 0003 005C    if( gVoltage > 50 ) LOW_VOLRY;
                 _0x6000B:
0001d9 940e 0b25 	CALL SUBOPT_0xA
0001db 97d3      	SBIW R26,51
0001dc f014      	BRLT _0x6000C
0001dd 9897      	CBI  0x12,7
                 ; 0003 005D    else  HIGH_VOLRY;
0001de c001      	RJMP _0x6000F
                 _0x6000C:
0001df 9a97      	SBI  0x12,7
                 ; 0003 005E 
                 ; 0003 005F   // DAC7611_WriteVoltage(gVoltage);
                 ; 0003 0060 
                 ; 0003 0061    return TRUE;
                 _0x6000F:
0001e0 c2c4      	RJMP _0x20A000B
                 ; 0003 0062 }
                 ; .FEND
                 ;
                 ;BYTE IPC1_RCV_DEPTH( LPIPC_HEADER pHead )
                 ; 0003 0065 {
                 _IPC1_RCV_DEPTH:
                 ; .FSTART _IPC1_RCV_DEPTH
                 ; 0003 0066    gDepth = pHead->data1;
0001e1 940e 0b03 	CALL SUBOPT_0x5
                 ;	*pHead -> Y+0
0001e3 81e3      	LDD  R30,Z+3
0001e4 940e 0b31 	CALL SUBOPT_0xC
                 ; 0003 0067    if( gDepth < 0 ) gDepth = 0;
0001e6 f412      	BRPL _0x60012
0001e7 940e 0b3a 	CALL SUBOPT_0xD
                 ; 0003 0068    if( gDepth > 3 ) gDepth = 3;
                 _0x60012:
0001e9 91a0 050e 	LDS  R26,_gDepth
0001eb 91b0 050f 	LDS  R27,_gDepth+1
0001ed 9714      	SBIW R26,4
0001ee f014      	BRLT _0x60013
0001ef 940e 0b40 	CALL SUBOPT_0xE
                 ; 0003 0069 
                 ; 0003 006A    return TRUE;
                 _0x60013:
0001f1 c2b3      	RJMP _0x20A000B
                 ; 0003 006B }
                 ; .FEND
                 ;
                 ;BYTE IPC1_RCV_SPEED( LPIPC_HEADER pHead )
                 ; 0003 006E {
                 _IPC1_RCV_SPEED:
                 ; .FSTART _IPC1_RCV_SPEED
                 ; 0003 006F    gSpeed = pHead->data1;
0001f2 940e 0b03 	CALL SUBOPT_0x5
                 ;	*pHead -> Y+0
0001f4 81e3      	LDD  R30,Z+3
0001f5 940e 0b47 	CALL SUBOPT_0xF
                 ; 0003 0070    if( gSpeed < 0 ) gSpeed = 0;
0001f7 f42a      	BRPL _0x60014
0001f8 e0e0      	LDI  R30,LOW(0)
0001f9 93e0 0510 	STS  _gSpeed,R30
0001fb 93e0 0511 	STS  _gSpeed+1,R30
                 ; 0003 0071    if( gSpeed > 2 ) gSpeed = 2;
                 _0x60014:
0001fd 91a0 0510 	LDS  R26,_gSpeed
0001ff 91b0 0511 	LDS  R27,_gSpeed+1
000201 9713      	SBIW R26,3
000202 f014      	BRLT _0x60015
000203 940e 0b50 	CALL SUBOPT_0x10
                 ; 0003 0072 
                 ; 0003 0073    return TRUE;
                 _0x60015:
000205 c29f      	RJMP _0x20A000B
                 ; 0003 0074 }
                 ; .FEND
                 ;
                 ;BYTE IPC1_RCV_ELCOUNT( LPIPC_HEADER pHead )
                 ; 0003 0077 {
                 _IPC1_RCV_ELCOUNT:
                 ; .FSTART _IPC1_RCV_ELCOUNT
                 ; 0003 0078    gElCount = pHead->data1;
000206 940e 0b03 	CALL SUBOPT_0x5
                 ;	*pHead -> Y+0
000208 81e3      	LDD  R30,Z+3
000209 e0f0      	LDI  R31,0
00020a 940e 0b57 	CALL SUBOPT_0x11
                 ; 0003 0079    if( gElCount < 0 ) gElCount = 0;
00020c 91a0 051a 	LDS  R26,_gElCount+1
00020e 23aa      	TST  R26
00020f f42a      	BRPL _0x60016
000210 e0e0      	LDI  R30,LOW(0)
000211 93e0 0519 	STS  _gElCount,R30
000213 93e0 051a 	STS  _gElCount+1,R30
                 ; 0003 007A    if( gElCount > 100 ) gElCount = 100;
                 _0x60016:
000215 91a0 0519 	LDS  R26,_gElCount
000217 91b0 051a 	LDS  R27,_gElCount+1
000219 36a5      	CPI  R26,LOW(0x65)
00021a e0e0      	LDI  R30,HIGH(0x65)
00021b 07be      	CPC  R27,R30
00021c f024      	BRLT _0x60017
00021d e6e4      	LDI  R30,LOW(100)
00021e e0f0      	LDI  R31,HIGH(100)
00021f 940e 0b57 	CALL SUBOPT_0x11
                 ; 0003 007B 
                 ; 0003 007C    return TRUE;
                 _0x60017:
000221 c283      	RJMP _0x20A000B
                 ; 0003 007D }
                 ; .FEND
                 ;
                 ;BYTE IPC1_RCV_FLAG( LPIPC_HEADER pHead )
                 ; 0003 0080 {
                 _IPC1_RCV_FLAG:
                 ; .FSTART _IPC1_RCV_FLAG
                 ; 0003 0081    gFlag = pHead->data2;
000222 940e 0b03 	CALL SUBOPT_0x5
                 ;	*pHead -> Y+0
000224 81e4      	LDD  R30,Z+4
000225 93e0 0512 	STS  _gFlag,R30
                 ; 0003 0082 
                 ; 0003 0083    return TRUE;
000227 c27d      	RJMP _0x20A000B
                 ; 0003 0084 }
                 ; .FEND
                 ;
                 ;BYTE IPC1_RCV_EL_MAP( LPIPC_HEADER pHead )
                 ; 0003 0087 {
                 _IPC1_RCV_EL_MAP:
                 ; .FSTART _IPC1_RCV_EL_MAP
                 ; 0003 0088    gElMatrix[0] = (BYTE)((pHead->data1>>4)&0xf);
000228 940e 0b03 	CALL SUBOPT_0x5
                 ;	*pHead -> Y+0
00022a 81e3      	LDD  R30,Z+3
00022b 95e2      	SWAP R30
00022c 70ef      	ANDI R30,LOW(0xF)
00022d 93e0 0500 	STS  _gElMatrix,R30
                 ; 0003 0089    gElMatrix[1] = (BYTE)(pHead->data1&0xf);
00022f 81e8      	LD   R30,Y
000230 81f9      	LDD  R31,Y+1
000231 81a3      	LDD  R26,Z+3
000232 e0ef      	LDI  R30,LOW(15)
000233 23ea      	AND  R30,R26
                +
000234 93e0 0501+STS _gElMatrix + ( 1 ) , R30
                 	__PUTB1MN _gElMatrix,1
                 ; 0003 008A    gElMatrix[2] = (BYTE)((pHead->data2>>4)&0xf);
000236 81e8      	LD   R30,Y
000237 81f9      	LDD  R31,Y+1
000238 81e4      	LDD  R30,Z+4
000239 95e2      	SWAP R30
00023a 70ef      	ANDI R30,LOW(0xF)
                +
00023b 93e0 0502+STS _gElMatrix + ( 2 ) , R30
                 	__PUTB1MN _gElMatrix,2
                 ; 0003 008B    gElMatrix[3] = (BYTE)(pHead->data2&0xf);
00023d 81e8      	LD   R30,Y
00023e 81f9      	LDD  R31,Y+1
00023f 81a4      	LDD  R26,Z+4
000240 e0ef      	LDI  R30,LOW(15)
000241 23ea      	AND  R30,R26
                +
000242 93e0 0503+STS _gElMatrix + ( 3 ) , R30
                 	__PUTB1MN _gElMatrix,3
                 ; 0003 008C 
                 ; 0003 008D    return TRUE;
000244 c260      	RJMP _0x20A000B
                 ; 0003 008E }
                 ; .FEND
                 ;
                 ;BYTE IPC1_RCV_MOTOR_POS1( LPIPC_HEADER pHead )
                 ; 0003 0091 {
                 _IPC1_RCV_MOTOR_POS1:
                 ; .FSTART _IPC1_RCV_MOTOR_POS1
                 ; 0003 0092    return TRUE;
000245 93ba      	ST   -Y,R27
000246 93aa      	ST   -Y,R26
                 ;	*pHead -> Y+0
000247 c25d      	RJMP _0x20A000B
                 ; 0003 0093 }
                 ; .FEND
                 ;
                 ;BYTE IPC1_RCV_MOTOR_POS2( LPIPC_HEADER pHead )
                 ; 0003 0096 {
                 _IPC1_RCV_MOTOR_POS2:
                 ; .FSTART _IPC1_RCV_MOTOR_POS2
                 ; 0003 0097    return TRUE;
000248 93ba      	ST   -Y,R27
000249 93aa      	ST   -Y,R26
                 ;	*pHead -> Y+0
00024a c25a      	RJMP _0x20A000B
                 ; 0003 0098 }
                 ; .FEND
                 ;
                 ;BYTE IPC1_RCV_ERROR( LPIPC_HEADER pHead )
                 ; 0003 009B {
                 _IPC1_RCV_ERROR:
                 ; .FSTART _IPC1_RCV_ERROR
                 ; 0003 009C    BYTE mErrPos = pHead->data1;
                 ; 0003 009D    BOOL mSetClearFlag = pHead->data2?TRUE:FALSE;
                 ; 0003 009E 
                 ; 0003 009F    if( mErrPos> ERROR_EM_STOP )
00024b 940e 0b5c 	CALL SUBOPT_0x12
                 ;	*pHead -> Y+2
                 ;	mErrPos -> R17
                 ;	mSetClearFlag -> R16
00024d 81ea      	LDD  R30,Y+2
00024e 81fb      	LDD  R31,Y+2+1
00024f 81e3      	LDD  R30,Z+3
000250 2f1e      	MOV  R17,R30
000251 81ea      	LDD  R30,Y+2
000252 81fb      	LDD  R31,Y+2+1
000253 81e4      	LDD  R30,Z+4
000254 30e0      	CPI  R30,0
000255 f011      	BREQ _0x60018
000256 e0e1      	LDI  R30,LOW(1)
000257 c001      	RJMP _0x60019
                 _0x60018:
000258 e0e0      	LDI  R30,LOW(0)
                 _0x60019:
000259 2f0e      	MOV  R16,R30
00025a 3018      	CPI  R17,8
00025b f008      	BRLO _0x6001B
                 ; 0003 00A0        mErrPos = ERROR_EM_STOP;
00025c e017      	LDI  R17,LOW(7)
                 ; 0003 00A1 
                 ; 0003 00A2    if( mSetClearFlag )
                 _0x6001B:
00025d 3000      	CPI  R16,0
00025e f039      	BREQ _0x6001C
                 ; 0003 00A3         gError &= ~(1<<mErrPos);
00025f 940e 0b61 	CALL SUBOPT_0x13
000261 95e0      	COM  R30
000262 91a0 0513 	LDS  R26,_gError
000264 23ea      	AND  R30,R26
000265 c005      	RJMP _0x6004D
                 ; 0003 00A4    else gError |= (1<<mErrPos);
                 _0x6001C:
000266 940e 0b61 	CALL SUBOPT_0x13
000268 91a0 0513 	LDS  R26,_gError
00026a 2bea      	OR   R30,R26
                 _0x6004D:
00026b 93e0 0513 	STS  _gError,R30
                 ; 0003 00A5 
                 ; 0003 00A6    return TRUE;
00026d e0e1      	LDI  R30,LOW(1)
00026e 8119      	LDD  R17,Y+1
00026f 8108      	LDD  R16,Y+0
000270 9624      	ADIW R28,4
000271 9508      	RET
                 ; 0003 00A7 }
                 ; .FEND
                 ;
                 ;BYTE IPC1_SND_MODE( LPIPC_HEADER pHead );
                 ;BYTE IPC1_SND_RUN( LPIPC_HEADER pHead );
                 ;BYTE IPC1_SND_DOSE( LPIPC_HEADER pHead );
                 ;BYTE IPC1_SND_VOLTAGE( LPIPC_HEADER pHead );
                 ;BYTE IPC1_SND_DEPTH( LPIPC_HEADER pHead );
                 ;BYTE IPC1_SND_SPEED( LPIPC_HEADER pHead );
                 ;BYTE IPC1_SND_ELCOUNT( LPIPC_HEADER pHead );
                 ;BYTE IPC1_SND_FLAG( LPIPC_HEADER pHead );
                 ;BYTE IPC1_SND_EL_MAP( LPIPC_HEADER pHead );
                 ;BYTE IPC1_SND_MOTOR_POS1( LPIPC_HEADER pHead );
                 ;BYTE IPC1_SND_MOTOR_POS2( LPIPC_HEADER pHead );
                 ;BYTE IPC1_SND_ERROR( LPIPC_HEADER pHead );
                 ;typedef BYTE(*SenFun) (LPIPC_HEADER pHead);
                 ;
                 ;SenFun IPC1Sndfun[]=
                 ;{
                 ;     IPC1_SND_MODE,
                 ;     IPC1_SND_RUN,
                 ;     IPC1_SND_DOSE,
                 ;     IPC1_SND_VOLTAGE,
                 ;     IPC1_SND_DEPTH,
                 ;     IPC1_SND_SPEED,
                 ;     IPC1_SND_ELCOUNT,
                 ;     IPC1_SND_FLAG,
                 ;     IPC1_SND_EL_MAP,
                 ;     IPC1_SND_MOTOR_POS1,
                 ;     IPC1_SND_MOTOR_POS2,
                 ;     IPC1_SND_ERROR
                 ;};
                 
                 	.DSEG
                 ;
                 ;BYTE IPC1_SND_MODE( LPIPC_HEADER pHead )
                 ; 0003 00C8 {
                 
                 	.CSEG
                 _IPC1_SND_MODE:
                 ; .FSTART _IPC1_SND_MODE
                 ; 0003 00C9    pHead->Command = SYS_OK;
000272 940e 0b66 	CALL SUBOPT_0x14
                 ;	*pHead -> Y+0
                 ; 0003 00CA    pHead->data1 = 0;//(BYTE)((gMode>>8)&0xff);  //
000274 e0e0      	LDI  R30,LOW(0)
000275 940e 0b71 	CALL SUBOPT_0x15
                 ; 0003 00CB    pHead->data2 = (BYTE)(gMode&0xff);
                 ; 0003 00CC 
                 ; 0003 00CD    pHead->checksum = MakeCrc( (BYTE *)pHead , sizeof( IPC_HEADER )- 2 );
000277 940e 0b79 	CALL SUBOPT_0x16
000279 940e 0b7e 	CALL SUBOPT_0x17
                 ; 0003 00CE 
                 ; 0003 00CF    IPC_SendData1( (BYTE *)pHead, sizeof( IPC_HEADER ) );
00027b e0a7      	LDI  R26,LOW(7)
00027c 940e 0574 	CALL _IPC_SendData1
                 ; 0003 00D0    return TRUE;
00027e c226      	RJMP _0x20A000B
                 ; 0003 00D1 }
                 ; .FEND
                 ;BYTE IPC1_SND_RUN( LPIPC_HEADER pHead )
                 ; 0003 00D3 {
                 _IPC1_SND_RUN:
                 ; .FSTART _IPC1_SND_RUN
                 ; 0003 00D4    pHead->Command = SYS_OK;
00027f 940e 0b66 	CALL SUBOPT_0x14
                 ;	*pHead -> Y+0
                 ; 0003 00D5    pHead->data1 = 1;  //
000281 940e 0b87 	CALL SUBOPT_0x18
                 ; 0003 00D6    pHead->data2 = (BYTE)(gRunFlag&0xff);
                 ; 0003 00D7 
                 ; 0003 00D8    pHead->checksum = MakeCrc( (BYTE *)pHead , sizeof( IPC_HEADER )- 2 );
000283 940e 0b79 	CALL SUBOPT_0x16
000285 940e 0b7e 	CALL SUBOPT_0x17
                 ; 0003 00D9 
                 ; 0003 00DA    IPC_SendData1( (BYTE *)pHead, sizeof( IPC_HEADER ) );
000287 e0a7      	LDI  R26,LOW(7)
000288 940e 0574 	CALL _IPC_SendData1
                 ; 0003 00DB    return TRUE;
00028a c21a      	RJMP _0x20A000B
                 ; 0003 00DC }
                 ; .FEND
                 ;
                 ;BYTE IPC1_SND_DOSE( LPIPC_HEADER pHead )
                 ; 0003 00DF {
                 _IPC1_SND_DOSE:
                 ; .FSTART _IPC1_SND_DOSE
                 ; 0003 00E0    pHead->Command = SYS_OK;
00028b 940e 0b90 	CALL SUBOPT_0x19
                 ;	*pHead -> Y+0
                 ; 0003 00E1    pHead->data1 = (BYTE)((gDose>>8)&0xff);
00028d 940e 0b98 	CALL SUBOPT_0x1A
                 ; 0003 00E2    pHead->data2 = (BYTE)(gDose&0xff);
                 ; 0003 00E3 
                 ; 0003 00E4    pHead->checksum = MakeCrc( (BYTE *)pHead , sizeof( IPC_HEADER )- 2 );
00028f 940e 0b79 	CALL SUBOPT_0x16
000291 940e 0b7e 	CALL SUBOPT_0x17
                 ; 0003 00E5 
                 ; 0003 00E6    IPC_SendData1( (BYTE *)pHead, sizeof( IPC_HEADER ) );
000293 e0a7      	LDI  R26,LOW(7)
000294 940e 0574 	CALL _IPC_SendData1
                 ; 0003 00E7    return TRUE;
000296 c20e      	RJMP _0x20A000B
                 ; 0003 00E8 }
                 ; .FEND
                 ;
                 ;BYTE IPC1_SND_VOLTAGE( LPIPC_HEADER pHead )
                 ; 0003 00EB {
                 _IPC1_SND_VOLTAGE:
                 ; .FSTART _IPC1_SND_VOLTAGE
                 ; 0003 00EC    pHead->Command = SYS_OK;
000297 940e 0b90 	CALL SUBOPT_0x19
                 ;	*pHead -> Y+0
                 ; 0003 00ED    pHead->data1 = (BYTE)((gVoltage>>8)&0xff);  //
000299 940e 0ba9 	CALL SUBOPT_0x1B
                 ; 0003 00EE    pHead->data2 = (BYTE)(gVoltage&0xff);
                 ; 0003 00EF 
                 ; 0003 00F0    pHead->checksum = MakeCrc( (BYTE *)pHead , sizeof( IPC_HEADER )- 2 );
00029b 940e 0b79 	CALL SUBOPT_0x16
00029d 940e 0b7e 	CALL SUBOPT_0x17
                 ; 0003 00F1 
                 ; 0003 00F2    IPC_SendData1( (BYTE *)pHead, sizeof( IPC_HEADER ) );
00029f e0a7      	LDI  R26,LOW(7)
0002a0 940e 0574 	CALL _IPC_SendData1
                 ; 0003 00F3 
                 ; 0003 00F4    return TRUE;
0002a2 c202      	RJMP _0x20A000B
                 ; 0003 00F5 }
                 ; .FEND
                 ;
                 ;BYTE IPC1_SND_DEPTH( LPIPC_HEADER pHead )
                 ; 0003 00F8 {
                 _IPC1_SND_DEPTH:
                 ; .FSTART _IPC1_SND_DEPTH
                 ; 0003 00F9    pHead->Command = SYS_OK;
0002a3 940e 0b90 	CALL SUBOPT_0x19
                 ;	*pHead -> Y+0
                 ; 0003 00FA    pHead->data1 = (BYTE)((gDepth>>8)&0xff);  //
0002a5 940e 0bba 	CALL SUBOPT_0x1C
                 ; 0003 00FB    pHead->data2 = (BYTE)(gDepth&0xff);
                 ; 0003 00FC 
                 ; 0003 00FD    pHead->checksum = MakeCrc( (BYTE *)pHead , sizeof( IPC_HEADER )- 2 );
0002a7 940e 0b79 	CALL SUBOPT_0x16
0002a9 940e 0b7e 	CALL SUBOPT_0x17
                 ; 0003 00FE 
                 ; 0003 00FF    IPC_SendData1( (BYTE *)pHead, sizeof( IPC_HEADER ) );
0002ab e0a7      	LDI  R26,LOW(7)
0002ac 940e 0574 	CALL _IPC_SendData1
                 ; 0003 0100 
                 ; 0003 0101    return TRUE;
0002ae c1f6      	RJMP _0x20A000B
                 ; 0003 0102 
                 ; 0003 0103 }
                 ; .FEND
                 ;
                 ;BYTE IPC1_SND_SPEED( LPIPC_HEADER pHead )
                 ; 0003 0106 {
                 _IPC1_SND_SPEED:
                 ; .FSTART _IPC1_SND_SPEED
                 ; 0003 0107    pHead->Command = SYS_OK;
0002af 940e 0b90 	CALL SUBOPT_0x19
                 ;	*pHead -> Y+0
                 ; 0003 0108    pHead->data1 = (BYTE)((gSpeed>>8)&0xff);  //
0002b1 940e 0bcb 	CALL SUBOPT_0x1D
                 ; 0003 0109    pHead->data2 = (BYTE)(gSpeed&0xff);
                 ; 0003 010A 
                 ; 0003 010B    pHead->checksum = MakeCrc( (BYTE *)pHead , sizeof( IPC_HEADER )- 2 );
0002b3 940e 0b79 	CALL SUBOPT_0x16
0002b5 940e 0b7e 	CALL SUBOPT_0x17
                 ; 0003 010C 
                 ; 0003 010D    IPC_SendData1( (BYTE *)pHead, sizeof( IPC_HEADER ) );
0002b7 e0a7      	LDI  R26,LOW(7)
0002b8 940e 0574 	CALL _IPC_SendData1
                 ; 0003 010E    return TRUE;
0002ba c1ea      	RJMP _0x20A000B
                 ; 0003 010F 
                 ; 0003 0110 }
                 ; .FEND
                 ;
                 ;BYTE IPC1_SND_ELCOUNT( LPIPC_HEADER pHead )
                 ; 0003 0113 {
                 _IPC1_SND_ELCOUNT:
                 ; .FSTART _IPC1_SND_ELCOUNT
                 ; 0003 0114    pHead->Command = SYS_OK;
0002bb 940e 0b90 	CALL SUBOPT_0x19
                 ;	*pHead -> Y+0
                 ; 0003 0115    pHead->data1 = (BYTE)((gElCount>>8)&0xff);  //
0002bd 940e 0bdc 	CALL SUBOPT_0x1E
                 ; 0003 0116    pHead->data2 = (BYTE)(gElCount&0xff);
                 ; 0003 0117 
                 ; 0003 0118    pHead->checksum = MakeCrc( (BYTE *)pHead , sizeof( IPC_HEADER )- 2 );
0002bf 940e 0b79 	CALL SUBOPT_0x16
0002c1 940e 0b7e 	CALL SUBOPT_0x17
                 ; 0003 0119 
                 ; 0003 011A    IPC_SendData1( (BYTE *)pHead, sizeof( IPC_HEADER ) );
0002c3 e0a7      	LDI  R26,LOW(7)
0002c4 940e 0574 	CALL _IPC_SendData1
                 ; 0003 011B    return TRUE;
0002c6 c1de      	RJMP _0x20A000B
                 ; 0003 011C }
                 ; .FEND
                 ;
                 ;BYTE IPC1_SND_FLAG( LPIPC_HEADER pHead )
                 ; 0003 011F {
                 _IPC1_SND_FLAG:
                 ; .FSTART _IPC1_SND_FLAG
                 ; 0003 0120    pHead->Command = SYS_OK;
0002c7 940e 0b90 	CALL SUBOPT_0x19
                 ;	*pHead -> Y+0
                 ; 0003 0121    pHead->data1 = (BYTE)(gRunFlag&0xff);
0002c9 91e0 050b 	LDS  R30,_gRunFlag
0002cb 940e 0bed 	CALL SUBOPT_0x1F
                 ; 0003 0122    pHead->data2 = (BYTE)(gFlag&0xff);
0002cd 940e 0bf2 	CALL SUBOPT_0x20
                 ; 0003 0123 
                 ; 0003 0124    pHead->checksum = MakeCrc( (BYTE *)pHead , sizeof( IPC_HEADER )- 2 );
0002cf 940e 0b79 	CALL SUBOPT_0x16
0002d1 940e 0b7e 	CALL SUBOPT_0x17
                 ; 0003 0125 
                 ; 0003 0126    IPC_SendData1( (BYTE *)pHead, sizeof( IPC_HEADER ) );
0002d3 e0a7      	LDI  R26,LOW(7)
0002d4 940e 0574 	CALL _IPC_SendData1
                 ; 0003 0127 
                 ; 0003 0128    return TRUE;
0002d6 c1ce      	RJMP _0x20A000B
                 ; 0003 0129 
                 ; 0003 012A }
                 ; .FEND
                 ;
                 ;BYTE IPC1_SND_EL_MAP( LPIPC_HEADER pHead )
                 ; 0003 012D {
                 _IPC1_SND_EL_MAP:
                 ; .FSTART _IPC1_SND_EL_MAP
                 ; 0003 012E    pHead->Command = SYS_OK;
0002d7 940e 0b90 	CALL SUBOPT_0x19
                 ;	*pHead -> Y+0
                 ; 0003 012F    pHead->data1  = (gElMatrix[0]&0x0f)<<4 | (gElMatrix[1]&0x0f);
0002d9 91e0 0500 	LDS  R30,_gElMatrix
0002db 70ef      	ANDI R30,LOW(0xF)
0002dc 95e2      	SWAP R30
0002dd 7fe0      	ANDI R30,0xF0
0002de 2fae      	MOV  R26,R30
                +
0002df 91e0 0501+LDS R30 , _gElMatrix + ( 1 )
                 	__GETB1MN _gElMatrix,1
0002e1 70ef      	ANDI R30,LOW(0xF)
0002e2 2bea      	OR   R30,R26
                +
0002e3 81a8     +LDD R26 , Y + 0
0002e4 81b9     +LDD R27 , Y + 0 + 1
0002e5 9613     +ADIW R26 , 3
0002e6 93ec     +ST X , R30
                 	__PUTB1SNS 0,3
                 ; 0003 0130    pHead->data2  = (gElMatrix[2]&0x0f)<<4 | (gElMatrix[3]&0x0f);
                +
0002e7 91e0 0502+LDS R30 , _gElMatrix + ( 2 )
                 	__GETB1MN _gElMatrix,2
0002e9 70ef      	ANDI R30,LOW(0xF)
0002ea 95e2      	SWAP R30
0002eb 7fe0      	ANDI R30,0xF0
0002ec 2fae      	MOV  R26,R30
                +
0002ed 91e0 0503+LDS R30 , _gElMatrix + ( 3 )
                 	__GETB1MN _gElMatrix,3
0002ef 70ef      	ANDI R30,LOW(0xF)
0002f0 2bea      	OR   R30,R26
0002f1 940e 0bf9 	CALL SUBOPT_0x21
                 ; 0003 0131 
                 ; 0003 0132    pHead->checksum = MakeCrc( (BYTE *)pHead , sizeof( IPC_HEADER )- 2 );
0002f3 940e 0b7e 	CALL SUBOPT_0x17
                 ; 0003 0133 
                 ; 0003 0134    IPC_SendData1( (BYTE *)pHead, sizeof( IPC_HEADER ) );
0002f5 e0a7      	LDI  R26,LOW(7)
0002f6 940e 0574 	CALL _IPC_SendData1
                 ; 0003 0135 
                 ; 0003 0136    return TRUE;
0002f8 c1ac      	RJMP _0x20A000B
                 ; 0003 0137 }
                 ; .FEND
                 ;
                 ;BYTE IPC1_SND_MOTOR_POS1( LPIPC_HEADER pHead )
                 ; 0003 013A {
                 _IPC1_SND_MOTOR_POS1:
                 ; .FSTART _IPC1_SND_MOTOR_POS1
                 ; 0003 013B    pHead->Command = SYS_OK;
0002f9 940e 0b90 	CALL SUBOPT_0x19
                 ;	*pHead -> Y+0
                 ; 0003 013C    pHead->data1  = (BYTE)((gMotorPos1>>8)&0xff);
0002fb 91e0 0514 	LDS  R30,_gMotorPos1
0002fd 91f0 0515 	LDS  R31,_gMotorPos1+1
0002ff 940e 0f71 	CALL __ASRW8
000301 940e 0bed 	CALL SUBOPT_0x1F
                 ; 0003 013D    pHead->data2  = (BYTE)(gMotorPos1&0xff);
000303 91e0 0514 	LDS  R30,_gMotorPos1
000305 940e 0bf9 	CALL SUBOPT_0x21
                 ; 0003 013E 
                 ; 0003 013F    pHead->checksum = MakeCrc( (BYTE *)pHead , sizeof( IPC_HEADER )- 2 );
000307 940e 0b7e 	CALL SUBOPT_0x17
                 ; 0003 0140 
                 ; 0003 0141    IPC_SendData1( (BYTE *)pHead, sizeof( IPC_HEADER ) );
000309 e0a7      	LDI  R26,LOW(7)
00030a 940e 0574 	CALL _IPC_SendData1
                 ; 0003 0142 
                 ; 0003 0143    return TRUE;
00030c c198      	RJMP _0x20A000B
                 ; 0003 0144 
                 ; 0003 0145 }
                 ; .FEND
                 ;
                 ;BYTE IPC1_SND_MOTOR_POS2( LPIPC_HEADER pHead )
                 ; 0003 0148 {
                 _IPC1_SND_MOTOR_POS2:
                 ; .FSTART _IPC1_SND_MOTOR_POS2
                 ; 0003 0149    pHead->Command = SYS_OK;
00030d 940e 0b90 	CALL SUBOPT_0x19
                 ;	*pHead -> Y+0
                 ; 0003 014A    pHead->data1  = (BYTE)((gMotorPos2>>8)&0xff);
00030f 91e0 0516 	LDS  R30,_gMotorPos2
000311 91f0 0517 	LDS  R31,_gMotorPos2+1
000313 940e 0f71 	CALL __ASRW8
000315 940e 0bed 	CALL SUBOPT_0x1F
                 ; 0003 014B    pHead->data2  = (BYTE)(gMotorPos2&0xff);
000317 91e0 0516 	LDS  R30,_gMotorPos2
000319 940e 0bf9 	CALL SUBOPT_0x21
                 ; 0003 014C 
                 ; 0003 014D    pHead->checksum = MakeCrc( (BYTE *)pHead , sizeof( IPC_HEADER )- 2 );
00031b 940e 0b7e 	CALL SUBOPT_0x17
                 ; 0003 014E 
                 ; 0003 014F    IPC_SendData1( (BYTE *)pHead, sizeof( IPC_HEADER ) );
00031d e0a7      	LDI  R26,LOW(7)
00031e 940e 0574 	CALL _IPC_SendData1
                 ; 0003 0150 
                 ; 0003 0151    return TRUE;
000320 c184      	RJMP _0x20A000B
                 ; 0003 0152 
                 ; 0003 0153 }
                 ; .FEND
                 ;
                 ;BYTE IPC1_SND_ERROR( LPIPC_HEADER pHead )
                 ; 0003 0156 {
                 _IPC1_SND_ERROR:
                 ; .FSTART _IPC1_SND_ERROR
                 ; 0003 0157 
                 ; 0003 0158    pHead->Command = SYS_OK;
000321 940e 0b66 	CALL SUBOPT_0x14
                 ;	*pHead -> Y+0
                 ; 0003 0159    pHead->data1 = 0;
000323 e0e0      	LDI  R30,LOW(0)
000324 93ec      	ST   X,R30
                 ; 0003 015A    pHead->data2 = gError;;
000325 91e0 0513 	LDS  R30,_gError
000327 940e 0bf9 	CALL SUBOPT_0x21
                 ; 0003 015B 
                 ; 0003 015C    pHead->checksum = MakeCrc( (BYTE *)pHead , sizeof( IPC_HEADER )- 2 );
000329 940e 0b7e 	CALL SUBOPT_0x17
                 ; 0003 015D 
                 ; 0003 015E    IPC_SendData1( (BYTE *)pHead, sizeof( IPC_HEADER ) );
00032b e0a7      	LDI  R26,LOW(7)
00032c 940e 0574 	CALL _IPC_SendData1
                 ; 0003 015F 
                 ; 0003 0160    gReadyActionFlag=TRUE;
00032e e0e1      	LDI  R30,LOW(1)
00032f 93e0 051c 	STS  _gReadyActionFlag,R30
                 ; 0003 0161    return TRUE;
000331 c173      	RJMP _0x20A000B
                 ; 0003 0162 
                 ; 0003 0163 }
                 ; .FEND
                 ;
                 ;BYTE MakeCrc( BYTE *Data, int Len )
                 ; 0003 0166 {
                 _MakeCrc:
                 ; .FSTART _MakeCrc
                 ; 0003 0167      int i;
                 ; 0003 0168      BYTE CRC;
                 ; 0003 0169 
                 ; 0003 016A      CRC = 0;
000332 940e 0aec 	CALL SUBOPT_0x1
                 ;	*Data -> Y+6
                 ;	Len -> Y+4
                 ;	i -> R16,R17
                 ;	CRC -> R19
000334 e030      	LDI  R19,LOW(0)
                 ; 0003 016B 
                 ; 0003 016C      for( i=0; i<Len ; i++ )
                +
000335 e000     +LDI R16 , LOW ( 0 )
000336 e010     +LDI R17 , HIGH ( 0 )
                 	__GETWRN 16,17,0
                 _0x60020:
000337 81ec      	LDD  R30,Y+4
000338 81fd      	LDD  R31,Y+4+1
000339 170e      	CP   R16,R30
00033a 071f      	CPC  R17,R31
00033b f454      	BRGE _0x60021
                 ; 0003 016D           CRC += Data[i];
00033c 01f8      	MOVW R30,R16
00033d 81ae      	LDD  R26,Y+6
00033e 81bf      	LDD  R27,Y+6+1
00033f 0fae      	ADD  R26,R30
000340 1fbf      	ADC  R27,R31
000341 91ec      	LD   R30,X
000342 0f3e      	ADD  R19,R30
                +
000343 5f0f     +SUBI R16 , LOW ( - 1 )
000344 4f1f     +SBCI R17 , HIGH ( - 1 )
                 	__ADDWRN 16,17,1
000345 cff1      	RJMP _0x60020
                 _0x60021:
                 ; 0003 016F return CRC;
000346 2fe3      	MOV  R30,R19
000347 940e 0fc5 	CALL __LOADLOCR4
000349 9628      	ADIW R28,8
00034a 9508      	RET
                 ; 0003 0170 }
                 ; .FEND
                 ;
                 ;void IPC_RunProcess1( void )
                 ; 0003 0173 {
                 _IPC_RunProcess1:
                 ; .FSTART _IPC_RunProcess1
                 ; 0003 0174      BYTE RcvHead[30];
                 ; 0003 0175      BYTE RcvByte;
                 ; 0003 0176      BYTE  Crc,RcvCrc;
                 ; 0003 0177      LPIPC_HEADER pHead;
                 ; 0003 0178 
                 ; 0003 0179   //   while( TRUE )
                 ; 0003 017A      {
00034b 940e 0bfe 	CALL SUBOPT_0x22
                 ;	RcvHead -> Y+6
                 ;	RcvByte -> R17
                 ;	Crc -> R16
                 ;	RcvCrc -> R19
                 ;	*pHead -> R20,R21
                 ; 0003 017B         RcvByte = IPC_RcvData_Interrupt1( RcvHead, sizeof( IPC_HEADER ) );
00034d 940e 0561 	CALL _IPC_RcvData_Interrupt1
00034f 940e 0c07 	CALL SUBOPT_0x23
                 ; 0003 017C         pHead = ( LPIPC_HEADER )RcvHead;
                 ; 0003 017D 
                 ; 0003 017E          Crc =  MakeCrc(  RcvHead , sizeof( IPC_HEADER )- 2 );
                 ; 0003 017F          RcvCrc = pHead->checksum;
                 ; 0003 0180 
                 ; 0003 0181          if(  RcvByte == sizeof( IPC_HEADER ) && RcvCrc == Crc &&
                 ; 0003 0182               pHead->stx == 0x02 && pHead->etx == 0x03 )
000351 f451      	BRNE _0x60023
000352 1703      	CP   R16,R19
000353 f441      	BRNE _0x60023
000354 01da      	MOVW R26,R20
000355 91ac      	LD   R26,X
000356 30a2      	CPI  R26,LOW(0x2)
000357 f421      	BRNE _0x60023
000358 01fa      	MOVW R30,R20
000359 81a6      	LDD  R26,Z+6
00035a 30a3      	CPI  R26,LOW(0x3)
00035b f009      	BREQ _0x60024
                 _0x60023:
00035c c00c      	RJMP _0x60022
                 _0x60024:
                 ; 0003 0183          {
                 ; 0003 0184               if( pHead->RWflag ==  IPC_MODE_READ )
00035d 01fa      	MOVW R30,R20
00035e 81a1      	LDD  R26,Z+1
00035f 35a2      	CPI  R26,LOW(0x52)
000360 f421      	BRNE _0x60025
                 ; 0003 0185                    IPC_SndProcess1( RcvHead );
000361 01de      	MOVW R26,R28
000362 9616      	ADIW R26,6
000363 d032      	RCALL _IPC_SndProcess1
                 ; 0003 0186               else IPC_RcvProcess1( RcvHead );
000364 c003      	RJMP _0x60026
                 _0x60025:
000365 01de      	MOVW R26,R28
000366 9616      	ADIW R26,6
000367 d00c      	RCALL _IPC_RcvProcess1
                 ; 0003 0187 
                 ; 0003 0188           }
                 _0x60026:
                 ; 0003 0189           else
000368 c005      	RJMP _0x60027
                 _0x60022:
                 ; 0003 018A           {
                 ; 0003 018B              IPC_Send_Response1( RcvHead, SYS_ERROR);
000369 01fe      	MOVW R30,R28
00036a 9636      	ADIW R30,6
00036b 940e 0c18 	CALL SUBOPT_0x24
                 ; 0003 018C              IPC_ResetCount1();
00036d d1e4      	RCALL _IPC_ResetCount1
                 ; 0003 018D           }
                 _0x60027:
                 ; 0003 018E 
                 ; 0003 018F      }
                 ; 0003 0190 
                 ; 0003 0191 }
00036e c15e      	RJMP _0x20A0009
                 ; .FEND
                 ; void IPC_Send_Response1( BYTE *Data, BYTE Res )
                 ; 0003 0193 {
                 _IPC_Send_Response1:
                 ; .FSTART _IPC_Send_Response1
                 ; 0003 0194      LPIPC_HEADER mLpHead;
                 ; 0003 0195 
                 ; 0003 0196      mLpHead = (LPIPC_HEADER)Data;
00036f 940e 0c1d 	CALL SUBOPT_0x25
                 ;	*Data -> Y+3
                 ;	Res -> Y+2
                 ;	*mLpHead -> R16,R17
                 ; 0003 0197 
                 ; 0003 0198      mLpHead->Command = Res;
                 ; 0003 0199      mLpHead->data1 = 0;
                 ; 0003 019A      mLpHead->data2 = 0;
                 ; 0003 019B      mLpHead-> checksum = MakeCrc( (BYTE *)mLpHead , sizeof( IPC_HEADER )- 2 );
                 ; 0003 019C 
                 ; 0003 019D      IPC_SendData1( Data, sizeof( IPC_HEADER ) );
000371 940e 0574 	CALL _IPC_SendData1
                 ; 0003 019E }
000373 c161      	RJMP _0x20A0008
                 ; .FEND
                 ;
                 ;void IPC_RcvProcess1( BYTE *Data )
                 ; 0003 01A1 {
                 _IPC_RcvProcess1:
                 ; .FSTART _IPC_RcvProcess1
                 ; 0003 01A2       LPIPC_HEADER pHead;
                 ; 0003 01A3 
                 ; 0003 01A4       pHead   = (LPIPC_HEADER)Data;
000374 940e 0b5c 	CALL SUBOPT_0x12
                 ;	*Data -> Y+2
                 ;	*pHead -> R16,R17
000376 940e 0c3c 	CALL SUBOPT_0x26
                 ; 0003 01A5       if(  pHead->Command < sizeof(IPC1Rcvfun)/2 )
000378 f4b8      	BRSH _0x60028
                 ; 0003 01A6       {
                 ; 0003 01A7              if( IPC1Rcvfun[pHead->Command]( pHead ) == TRUE )        //  Run Command
000379 01f8      	MOVW R30,R16
00037a 81e2      	LDD  R30,Z+2
00037b e1af      	LDI  R26,LOW(_IPC1Rcvfun)
00037c e0b5      	LDI  R27,HIGH(_IPC1Rcvfun)
00037d 940e 0c42 	CALL SUBOPT_0x27
00037f 93ff      	PUSH R31
000380 93ef      	PUSH R30
000381 01d8      	MOVW R26,R16
000382 91ef      	POP  R30
000383 91ff      	POP  R31
000384 9509      	ICALL
000385 30e1      	CPI  R30,LOW(0x1)
000386 f421      	BRNE _0x60029
                 ; 0003 01A8              {
                 ; 0003 01A9                  IPC_Send_Response1( Data, SYS_OK );
000387 940e 0c4a 	CALL SUBOPT_0x28
000389 e8a0      	LDI  R26,LOW(128)
00038a c003      	RJMP _0x6004E
                 ; 0003 01AA              }
                 ; 0003 01AB              else
                 _0x60029:
                 ; 0003 01AC              {
                 ; 0003 01AD                  IPC_Send_Response1( Data, SYS_ERROR);
00038b 940e 0c4a 	CALL SUBOPT_0x28
00038d e8a1      	LDI  R26,LOW(129)
                 _0x6004E:
00038e dfe0      	RCALL _IPC_Send_Response1
                 ; 0003 01AE               }
                 ; 0003 01AF        }
                 ; 0003 01B0        else
00038f c002      	RJMP _0x6002B
                 _0x60028:
                 ; 0003 01B1        {
                 ; 0003 01B2            IPC_Send_Response1( Data, SYS_ERROR );
000390 940e 0c4f 	CALL SUBOPT_0x29
                 ; 0003 01B3         }
                 _0x6002B:
                 ; 0003 01B4 
                 ; 0003 01B5 }
000392 8119      	LDD  R17,Y+1
000393 8108      	LDD  R16,Y+0
000394 940c 05e9 	JMP  _0x20A0003
                 ; .FEND
                 ;
                 ;
                 ;void IPC_SndProcess1( BYTE *Data )
                 ; 0003 01B9 {
                 _IPC_SndProcess1:
                 ; .FSTART _IPC_SndProcess1
                 ; 0003 01BA       LPIPC_HEADER pHead;
                 ; 0003 01BB 
                 ; 0003 01BC       pHead = (LPIPC_HEADER)Data;
000396 940e 0b5c 	CALL SUBOPT_0x12
                 ;	*Data -> Y+2
                 ;	*pHead -> R16,R17
000398 940e 0c3c 	CALL SUBOPT_0x26
                 ; 0003 01BD       if(   pHead->Command < sizeof(IPC1Sndfun)/2  )
00039a f488      	BRSH _0x6002C
                 ; 0003 01BE       {
                 ; 0003 01BF           if( IPC1Sndfun[pHead->Command]( pHead ) == FALSE )        //  Run Command
00039b 01f8      	MOVW R30,R16
00039c 81e2      	LDD  R30,Z+2
00039d e3a7      	LDI  R26,LOW(_IPC1Sndfun)
00039e e0b5      	LDI  R27,HIGH(_IPC1Sndfun)
00039f 940e 0c42 	CALL SUBOPT_0x27
0003a1 93ff      	PUSH R31
0003a2 93ef      	PUSH R30
0003a3 01d8      	MOVW R26,R16
0003a4 91ef      	POP  R30
0003a5 91ff      	POP  R31
0003a6 9509      	ICALL
0003a7 30e0      	CPI  R30,0
0003a8 f411      	BRNE _0x6002D
                 ; 0003 01C0               IPC_Send_Response1( Data, SYS_ERROR );
0003a9 940e 0c4f 	CALL SUBOPT_0x29
                 ; 0003 01C1       }
                 _0x6002D:
                 ; 0003 01C2       else
0003ab c002      	RJMP _0x6002E
                 _0x6002C:
                 ; 0003 01C3       {
                 ; 0003 01C4            IPC_Send_Response1( Data, SYS_ERROR );
0003ac 940e 0c4f 	CALL SUBOPT_0x29
                 ; 0003 01C5       }
                 _0x6002E:
                 ; 0003 01C6 }
0003ae 8119      	LDD  R17,Y+1
0003af 8108      	LDD  R16,Y+0
0003b0 940c 05e9 	JMP  _0x20A0003
                 ; .FEND
                 ;
                 ;
                 ;BYTE IPC0_RCV_MODE( LPIPC_HEADER pHead );
                 ;BYTE IPC0_RCV_RUN( LPIPC_HEADER pHead );
                 ;BYTE IPC0_RCV_DOSE( LPIPC_HEADER pHead );
                 ;BYTE IPC0_RCV_VOLTAGE( LPIPC_HEADER pHead );
                 ;BYTE IPC0_RCV_DEPTH( LPIPC_HEADER pHead );
                 ;BYTE IPC0_RCV_SPEED( LPIPC_HEADER pHead );
                 ;BYTE IPC0_RCV_ELCOUNT( LPIPC_HEADER pHead );
                 ;BYTE IPC0_RCV_FLAG( LPIPC_HEADER pHead );
                 ;BYTE IPC0_RCV_EL_MAP( LPIPC_HEADER pHead );
                 ;BYTE IPC0_RCV_MOTOR_POS1( LPIPC_HEADER pHead );
                 ;BYTE IPC0_RCV_MOTOR_POS2( LPIPC_HEADER pHead );
                 ;BYTE IPC0_RCV_ERROR( LPIPC_HEADER pHead );
                 ;//typedef BYTE(*RunFun) (LPIPC_HEADER pHead );
                 ;
                 ;RunFun IPC0Rcvfun[]=
                 ;{
                 ;     IPC0_RCV_MODE,
                 ;     IPC0_RCV_RUN,
                 ;     IPC0_RCV_DOSE,
                 ;     IPC0_RCV_VOLTAGE,
                 ;     IPC0_RCV_DEPTH,
                 ;     IPC0_RCV_SPEED,
                 ;     IPC0_RCV_ELCOUNT,
                 ;     IPC0_RCV_FLAG,
                 ;     IPC0_RCV_EL_MAP,
                 ;     IPC0_RCV_MOTOR_POS1,
                 ;     IPC0_RCV_MOTOR_POS2,
                 ;     IPC0_RCV_ERROR
                 ;};
                 
                 	.DSEG
                 ;
                 ;BYTE IPC0_RCV_MODE( LPIPC_HEADER pHead )
                 ; 0003 01E8 {
                 
                 	.CSEG
                 _IPC0_RCV_MODE:
                 ; .FSTART _IPC0_RCV_MODE
                 ; 0003 01E9    gMode = pHead->data2;
0003b2 940e 0b03 	CALL SUBOPT_0x5
                 ;	*pHead -> Y+0
0003b4 81e4      	LDD  R30,Z+4
0003b5 93e0 050a 	STS  _gMode,R30
                 ; 0003 01EA 
                 ; 0003 01EB    if( gMode == MODE_READY ) //ready
0003b7 91a0 050a 	LDS  R26,_gMode
0003b9 30a1      	CPI  R26,LOW(0x1)
0003ba f4d9      	BRNE _0x60030
                 ; 0003 01EC    {
                 ; 0003 01ED       //gElCount = 0;
                 ; 0003 01EE       PORTC = 0x00;
0003bb e0e0      	LDI  R30,LOW(0)
0003bc bbe5      	OUT  0x15,R30
                 ; 0003 01EF       HIGH_PWM;
0003bd 91e0 0065 	LDS  R30,101
0003bf 60e8      	ORI  R30,8
0003c0 93e0 0065 	STS  101,R30
                 ; 0003 01F0       DAC7611_WriteVoltage(gVoltage);
0003c2 940e 0b25 	CALL SUBOPT_0xA
0003c4 940e 0c52 	CALL SUBOPT_0x2A
                 ; 0003 01F1       HIGH_OUTRY;
0003c6 61e0      	ORI  R30,0x10
0003c7 93e0 0065 	STS  101,R30
                 ; 0003 01F2 
                 ; 0003 01F3       gError = ERROR_NO;
0003c9 e0e0      	LDI  R30,LOW(0)
0003ca 93e0 0513 	STS  _gError,R30
                 ; 0003 01F4       gFlag = FLAG_VOLADJ;
0003cc e0e1      	LDI  R30,LOW(1)
0003cd 93e0 0512 	STS  _gFlag,R30
                 ; 0003 01F5 
                 ; 0003 01F6       gVolChkCount = 2;
0003cf e0e2      	LDI  R30,LOW(2)
0003d0 e0f0      	LDI  R31,HIGH(2)
0003d1 93e0 051d 	STS  _gVolChkCount,R30
0003d3 93f0 051e 	STS  _gVolChkCount+1,R31
                 ; 0003 01F7 
                 ; 0003 01F8       //LOW_COMPLETE_LED;
                 ; 0003 01F9       //LOW_WARRING_LED;
                 ; 0003 01FA    }
                 ; 0003 01FB    else //if( gMode == MODE_STOP )
0003d5 c004      	RJMP _0x60031
                 _0x60030:
                 ; 0003 01FC    {
                 ; 0003 01FD        PORTC = 0x00;
0003d6 940e 0c57 	CALL SUBOPT_0x2B
                 ; 0003 01FE        DAC7611_WriteVoltage(0);
                 ; 0003 01FF        LOW_PWM;
0003d8 940e 0c5c 	CALL SUBOPT_0x2C
                 ; 0003 0200        LOW_OUTRY;
                 ; 0003 0201       // gError = ERROR_NO;
                 ; 0003 0202        gFlag = FLAG_STADNBY;
                 ; 0003 0203 
                 ; 0003 0204       // LOW_COMPLETE_LED;
                 ; 0003 0205       //LOW_WARRING_LED;
                 ; 0003 0206    }
                 _0x60031:
                 ; 0003 0207 
                 ; 0003 0208    gRunFlag = FALSE;
0003da e0e0      	LDI  R30,LOW(0)
0003db 93e0 050b 	STS  _gRunFlag,R30
                 ; 0003 0209    gElCompletFlag = FALSE;
0003dd 93e0 0518 	STS  _gElCompletFlag,R30
                 ; 0003 020A    return TRUE;
0003df c0c5      	RJMP _0x20A000B
                 ; 0003 020B }
                 ; .FEND
                 ;
                 ;BYTE IPC0_RCV_RUN( LPIPC_HEADER pHead )
                 ; 0003 020E {
                 _IPC0_RCV_RUN:
                 ; .FSTART _IPC0_RCV_RUN
                 ; 0003 020F    if( gFlag == FLAG_SHOOTING ) //ready
0003e0 93ba      	ST   -Y,R27
0003e1 93aa      	ST   -Y,R26
                 ;	*pHead -> Y+0
0003e2 91a0 0512 	LDS  R26,_gFlag
0003e4 30a3      	CPI  R26,LOW(0x3)
0003e5 f479      	BRNE _0x60032
                 ; 0003 0210    {
                 ; 0003 0211       // HIGH_SH;
                 ; 0003 0212        gRunFlag = pHead->data2?TRUE:FALSE;
0003e6 81e8      	LD   R30,Y
0003e7 81f9      	LDD  R31,Y+1
0003e8 81e4      	LDD  R30,Z+4
0003e9 30e0      	CPI  R30,0
0003ea f011      	BREQ _0x60033
0003eb e0e1      	LDI  R30,LOW(1)
0003ec c001      	RJMP _0x60034
                 _0x60033:
0003ed e0e0      	LDI  R30,LOW(0)
                 _0x60034:
0003ee 93e0 050b 	STS  _gRunFlag,R30
                 ; 0003 0213 
                 ; 0003 0214        gElCompletFlag = FALSE;
0003f0 e0e0      	LDI  R30,LOW(0)
0003f1 93e0 0518 	STS  _gElCompletFlag,R30
                 ; 0003 0215        LOW_SH;
0003f3 98c6      	CBI  0x18,6
                 ; 0003 0216    }
                 ; 0003 0217    else
0003f4 c004      	RJMP _0x60038
                 _0x60032:
                 ; 0003 0218    {
                 ; 0003 0219        PORTC = 0x00;
0003f5 940e 0c57 	CALL SUBOPT_0x2B
                 ; 0003 021A        DAC7611_WriteVoltage(0);
                 ; 0003 021B        LOW_PWM;
0003f7 940e 0c5c 	CALL SUBOPT_0x2C
                 ; 0003 021C        LOW_OUTRY;
                 ; 0003 021D       // gError = ERROR_NO;
                 ; 0003 021E        gFlag = FLAG_STADNBY;
                 ; 0003 021F    }
                 _0x60038:
                 ; 0003 0220    return TRUE;
0003f9 c0ab      	RJMP _0x20A000B
                 ; 0003 0221 }
                 ; .FEND
                 ;
                 ;BYTE IPC0_RCV_DOSE( LPIPC_HEADER pHead )
                 ; 0003 0224 {
                 _IPC0_RCV_DOSE:
                 ; .FSTART _IPC0_RCV_DOSE
                 ; 0003 0225 
                 ; 0003 0226    return TRUE;
0003fa 93ba      	ST   -Y,R27
0003fb 93aa      	ST   -Y,R26
                 ;	*pHead -> Y+0
0003fc c0a8      	RJMP _0x20A000B
                 ; 0003 0227 }
                 ; .FEND
                 ;
                 ;BYTE IPC0_RCV_VOLTAGE( LPIPC_HEADER pHead )
                 ; 0003 022A {
                 _IPC0_RCV_VOLTAGE:
                 ; .FSTART _IPC0_RCV_VOLTAGE
                 ; 0003 022B    return TRUE;
0003fd 93ba      	ST   -Y,R27
0003fe 93aa      	ST   -Y,R26
                 ;	*pHead -> Y+0
0003ff c0a5      	RJMP _0x20A000B
                 ; 0003 022C }
                 ; .FEND
                 ;
                 ;BYTE IPC0_RCV_DEPTH( LPIPC_HEADER pHead )
                 ; 0003 022F {
                 _IPC0_RCV_DEPTH:
                 ; .FSTART _IPC0_RCV_DEPTH
                 ; 0003 0230    return TRUE;
000400 93ba      	ST   -Y,R27
000401 93aa      	ST   -Y,R26
                 ;	*pHead -> Y+0
000402 c0a2      	RJMP _0x20A000B
                 ; 0003 0231 }
                 ; .FEND
                 ;BYTE IPC0_RCV_SPEED( LPIPC_HEADER pHead )
                 ; 0003 0233 {
                 _IPC0_RCV_SPEED:
                 ; .FSTART _IPC0_RCV_SPEED
                 ; 0003 0234    return TRUE;
000403 93ba      	ST   -Y,R27
000404 93aa      	ST   -Y,R26
                 ;	*pHead -> Y+0
000405 c09f      	RJMP _0x20A000B
                 ; 0003 0235 }
                 ; .FEND
                 ;BYTE IPC0_RCV_ELCOUNT( LPIPC_HEADER pHead )
                 ; 0003 0237 {
                 _IPC0_RCV_ELCOUNT:
                 ; .FSTART _IPC0_RCV_ELCOUNT
                 ; 0003 0238    return TRUE;
000406 93ba      	ST   -Y,R27
000407 93aa      	ST   -Y,R26
                 ;	*pHead -> Y+0
000408 c09c      	RJMP _0x20A000B
                 ; 0003 0239 }
                 ; .FEND
                 ;
                 ; BYTE IPC0_RCV_FLAG( LPIPC_HEADER pHead )
                 ; 0003 023C {
                 _IPC0_RCV_FLAG:
                 ; .FSTART _IPC0_RCV_FLAG
                 ; 0003 023D    BYTE mFlag;
                 ; 0003 023E    mFlag = pHead->data2;
000409 940e 0afd 	CALL SUBOPT_0x4
                 ;	*pHead -> Y+1
                 ;	mFlag -> R17
00040b 8114      	LDD  R17,Z+4
                 ; 0003 023F 
                 ; 0003 0240    if( mFlag > FLAG_EM_STOP)
00040c 3016      	CPI  R17,6
00040d f020      	BRLO _0x60039
                 ; 0003 0241        gFlag = FLAG_EM_STOP;
00040e e0e5      	LDI  R30,LOW(5)
00040f 93e0 0512 	STS  _gFlag,R30
                 ; 0003 0242    else gFlag = mFlag;
000411 c002      	RJMP _0x6003A
                 _0x60039:
000412 9310 0512 	STS  _gFlag,R17
                 ; 0003 0243 
                 ; 0003 0244    return TRUE;
                 _0x6003A:
000414 c030      	RJMP _0x20A000D
                 ; 0003 0245 }
                 ; .FEND
                 ;BYTE IPC0_RCV_EL_MAP( LPIPC_HEADER pHead )
                 ; 0003 0247 {
                 _IPC0_RCV_EL_MAP:
                 ; .FSTART _IPC0_RCV_EL_MAP
                 ; 0003 0248    return TRUE;
000415 93ba      	ST   -Y,R27
000416 93aa      	ST   -Y,R26
                 ;	*pHead -> Y+0
000417 c08d      	RJMP _0x20A000B
                 ; 0003 0249 }
                 ; .FEND
                 ;
                 ;BYTE IPC0_RCV_MOTOR_POS1( LPIPC_HEADER pHead )
                 ; 0003 024C {
                 _IPC0_RCV_MOTOR_POS1:
                 ; .FSTART _IPC0_RCV_MOTOR_POS1
                 ; 0003 024D    WORD temp;
                 ; 0003 024E    temp = ((WORD)pHead->data1)<<8|pHead->data2;
000418 940e 0b5c 	CALL SUBOPT_0x12
                 ;	*pHead -> Y+2
                 ;	temp -> R16,R17
00041a 940e 0c68 	CALL SUBOPT_0x2D
                 ; 0003 024F    gMotorPos1 = temp;
                +
00041c 9300 0514+STS _gMotorPos1 + ( 0 ) , R16
00041e 9310 0515+STS _gMotorPos1 + ( 0 ) + 1 , R17
                 	__PUTWMRN _gMotorPos1,0,16,17
                 ; 0003 0250 
                 ; 0003 0251    return TRUE;
000420 e0e1      	LDI  R30,LOW(1)
000421 8119      	LDD  R17,Y+1
000422 8108      	LDD  R16,Y+0
000423 940c 05e9 	JMP  _0x20A0003
                 ; 0003 0252 }
                 ; .FEND
                 ;
                 ;BYTE IPC0_RCV_MOTOR_POS2( LPIPC_HEADER pHead )
                 ; 0003 0255 {
                 _IPC0_RCV_MOTOR_POS2:
                 ; .FSTART _IPC0_RCV_MOTOR_POS2
                 ; 0003 0256    WORD temp;
                 ; 0003 0257    temp = ((WORD)pHead->data1)<<8|pHead->data2;
000425 940e 0b5c 	CALL SUBOPT_0x12
                 ;	*pHead -> Y+2
                 ;	temp -> R16,R17
000427 940e 0c68 	CALL SUBOPT_0x2D
                 ; 0003 0258    gMotorPos2 = temp;
                +
000429 9300 0516+STS _gMotorPos2 + ( 0 ) , R16
00042b 9310 0517+STS _gMotorPos2 + ( 0 ) + 1 , R17
                 	__PUTWMRN _gMotorPos2,0,16,17
                 ; 0003 0259 
                 ; 0003 025A    return TRUE;
00042d e0e1      	LDI  R30,LOW(1)
00042e 8119      	LDD  R17,Y+1
00042f 8108      	LDD  R16,Y+0
000430 940c 05e9 	JMP  _0x20A0003
                 ; 0003 025B }
                 ; .FEND
                 ;
                 ;BYTE IPC0_RCV_ERROR( LPIPC_HEADER pHead )
                 ; 0003 025E {
                 _IPC0_RCV_ERROR:
                 ; .FSTART _IPC0_RCV_ERROR
                 ; 0003 025F    BYTE mErrPos = pHead->data1;
                 ; 0003 0260 
                 ; 0003 0261    if( mErrPos> ERROR_EM_STOP )
000432 940e 0afd 	CALL SUBOPT_0x4
                 ;	*pHead -> Y+1
                 ;	mErrPos -> R17
000434 81e3      	LDD  R30,Z+3
000435 2f1e      	MOV  R17,R30
000436 3018      	CPI  R17,8
000437 f008      	BRLO _0x6003B
                 ; 0003 0262        mErrPos = ERROR_EM_STOP;
000438 e017      	LDI  R17,LOW(7)
                 ; 0003 0263 
                 ; 0003 0264    if( mErrPos == ERROR_EM_STOP )  //2021-01-12
                 _0x6003B:
000439 3017      	CPI  R17,7
00043a f419      	BRNE _0x6003C
                 ; 0003 0265       gFlag = FLAG_EM_STOP;
00043b e0e5      	LDI  R30,LOW(5)
00043c 93e0 0512 	STS  _gFlag,R30
                 ; 0003 0266 
                 ; 0003 0267    gError |= (1<<mErrPos);
                 _0x6003C:
00043e 940e 0b61 	CALL SUBOPT_0x13
000440 91a0 0513 	LDS  R26,_gError
000442 2bea      	OR   R30,R26
000443 940e 0c76 	CALL SUBOPT_0x2E
                 ; 0003 0268 
                 ; 0003 0269    gCurMode = CUR_ERROR;
                 ; 0003 026A 
                 ; 0003 026B    return TRUE;
                 _0x20A000D:
000445 e0e1      	LDI  R30,LOW(1)
000446 8118      	LDD  R17,Y+0
                 _0x20A000E:
000447 9623      	ADIW R28,3
000448 9508      	RET
                 ; 0003 026C }
                 ; .FEND
                 ;BYTE IPC0_SND_MODE( LPIPC_HEADER pHead );
                 ;BYTE IPC0_SND_RUN( LPIPC_HEADER pHead );
                 ;BYTE IPC0_SND_DOSE( LPIPC_HEADER pHead );
                 ;BYTE IPC0_SND_VOLTAGE( LPIPC_HEADER pHead );
                 ;BYTE IPC0_SND_DEPTH( LPIPC_HEADER pHead );
                 ;BYTE IPC0_SND_SPEED( LPIPC_HEADER pHead );
                 ;BYTE IPC0_SND_ELCOUNT( LPIPC_HEADER pHead );
                 ;BYTE IPC0_SND_FLAG( LPIPC_HEADER pHead );
                 ;BYTE IPC0_SND_EL_MAP( LPIPC_HEADER pHead );
                 ;BYTE IPC0_SND_MOTOR_POS1( LPIPC_HEADER pHead );
                 ;BYTE IPC0_SND_MOTOR_POS2( LPIPC_HEADER pHead );
                 ;BYTE IPC0_SND_ERROR( LPIPC_HEADER pHead );
                 ;//typedef BYTE(*SenFun) (LPIPC_HEADER pHead);
                 ;
                 ;SenFun IPC0Sndfun[]=
                 ;{
                 ;     IPC0_SND_MODE,
                 ;     IPC0_SND_RUN,
                 ;     IPC0_SND_DOSE,
                 ;     IPC0_SND_VOLTAGE,
                 ;     IPC0_SND_DEPTH,
                 ;     IPC0_SND_SPEED,
                 ;     IPC0_SND_ELCOUNT,
                 ;     IPC0_SND_FLAG,
                 ;     IPC0_SND_EL_MAP,
                 ;     IPC0_SND_MOTOR_POS1,
                 ;     IPC0_SND_MOTOR_POS2,
                 ;     IPC0_SND_ERROR
                 ;};
                 
                 	.DSEG
                 ;
                 ;BYTE IPC0_SND_MODE( LPIPC_HEADER pHead )
                 ; 0003 028C {
                 
                 	.CSEG
                 _IPC0_SND_MODE:
                 ; .FSTART _IPC0_SND_MODE
                 ; 0003 028D    pHead->Command = SYS_OK;
000449 940e 0b66 	CALL SUBOPT_0x14
                 ;	*pHead -> Y+0
                 ; 0003 028E    pHead->data1 = 1;//(BYTE)((gMode>>8)&0xff);  //
00044b e0e1      	LDI  R30,LOW(1)
00044c 940e 0b71 	CALL SUBOPT_0x15
                 ; 0003 028F    pHead->data2 =  (BYTE)(gMode&0xff);
                 ; 0003 0290 
                 ; 0003 0291    pHead->checksum = MakeCrc( (BYTE *)pHead , sizeof( IPC_HEADER )- 2 );
00044e c04d      	RJMP _0x20A000A
                 ; 0003 0292 
                 ; 0003 0293    IPC_SendData0( (BYTE *)pHead, sizeof( IPC_HEADER ) );
                 ; 0003 0294    return TRUE;
                 ; 0003 0295 }
                 ; .FEND
                 ;
                 ;BYTE IPC0_SND_RUN( LPIPC_HEADER pHead )
                 ; 0003 0298 {
                 _IPC0_SND_RUN:
                 ; .FSTART _IPC0_SND_RUN
                 ; 0003 0299    pHead->Command = SYS_OK;
00044f 940e 0b66 	CALL SUBOPT_0x14
                 ;	*pHead -> Y+0
                 ; 0003 029A    pHead->data1 = 1;//(BYTE)((gRunFlag>>8)&0xff);  //
000451 940e 0b87 	CALL SUBOPT_0x18
                 ; 0003 029B    pHead->data2 = (BYTE)(gRunFlag&0xff);
                 ; 0003 029C 
                 ; 0003 029D    pHead->checksum = MakeCrc( (BYTE *)pHead , sizeof( IPC_HEADER )- 2 );
000453 c048      	RJMP _0x20A000A
                 ; 0003 029E 
                 ; 0003 029F    IPC_SendData0( (BYTE *)pHead, sizeof( IPC_HEADER ) );
                 ; 0003 02A0    return TRUE;
                 ; 0003 02A1 }
                 ; .FEND
                 ;
                 ;BYTE IPC0_SND_DOSE( LPIPC_HEADER pHead )
                 ; 0003 02A4 {
                 _IPC0_SND_DOSE:
                 ; .FSTART _IPC0_SND_DOSE
                 ; 0003 02A5    pHead->Command = SYS_OK;
000454 940e 0b90 	CALL SUBOPT_0x19
                 ;	*pHead -> Y+0
                 ; 0003 02A6    pHead->data1 = (BYTE)((gDose>>8)&0xff);
000456 940e 0b98 	CALL SUBOPT_0x1A
                 ; 0003 02A7    pHead->data2 = (BYTE)(gDose&0xff);
                 ; 0003 02A8 
                 ; 0003 02A9    pHead->checksum = MakeCrc( (BYTE *)pHead , sizeof( IPC_HEADER )- 2 );
000458 c043      	RJMP _0x20A000A
                 ; 0003 02AA 
                 ; 0003 02AB    IPC_SendData0( (BYTE *)pHead, sizeof( IPC_HEADER ) );
                 ; 0003 02AC    return TRUE;
                 ; 0003 02AD }
                 ; .FEND
                 ;BYTE IPC0_SND_VOLTAGE( LPIPC_HEADER pHead )
                 ; 0003 02AF {
                 _IPC0_SND_VOLTAGE:
                 ; .FSTART _IPC0_SND_VOLTAGE
                 ; 0003 02B0    pHead->Command = SYS_OK;
000459 940e 0b90 	CALL SUBOPT_0x19
                 ;	*pHead -> Y+0
                 ; 0003 02B1    pHead->data1 = (BYTE)((gVoltage>>8)&0xff);  //
00045b 940e 0ba9 	CALL SUBOPT_0x1B
                 ; 0003 02B2    pHead->data2 = (BYTE)(gVoltage&0xff);
                 ; 0003 02B3 
                 ; 0003 02B4    pHead->checksum = MakeCrc( (BYTE *)pHead , sizeof( IPC_HEADER )- 2 );
00045d c03e      	RJMP _0x20A000A
                 ; 0003 02B5 
                 ; 0003 02B6    IPC_SendData0( (BYTE *)pHead, sizeof( IPC_HEADER ) );
                 ; 0003 02B7 
                 ; 0003 02B8    return TRUE;
                 ; 0003 02B9 }
                 ; .FEND
                 ;
                 ;BYTE IPC0_SND_DEPTH( LPIPC_HEADER pHead )
                 ; 0003 02BC {
                 _IPC0_SND_DEPTH:
                 ; .FSTART _IPC0_SND_DEPTH
                 ; 0003 02BD    pHead->Command = SYS_OK;
00045e 940e 0b90 	CALL SUBOPT_0x19
                 ;	*pHead -> Y+0
                 ; 0003 02BE    pHead->data1 = (BYTE)((gDepth>>8)&0xff);  //
000460 940e 0bba 	CALL SUBOPT_0x1C
                 ; 0003 02BF    pHead->data2 = (BYTE)(gDepth&0xff);
                 ; 0003 02C0 
                 ; 0003 02C1    pHead->checksum = MakeCrc( (BYTE *)pHead , sizeof( IPC_HEADER )- 2 );
000462 c039      	RJMP _0x20A000A
                 ; 0003 02C2 
                 ; 0003 02C3    IPC_SendData0( (BYTE *)pHead, sizeof( IPC_HEADER ) );
                 ; 0003 02C4 
                 ; 0003 02C5    return TRUE;
                 ; 0003 02C6 
                 ; 0003 02C7 }
                 ; .FEND
                 ;
                 ;BYTE IPC0_SND_ELCOUNT( LPIPC_HEADER pHead )
                 ; 0003 02CA {
                 _IPC0_SND_ELCOUNT:
                 ; .FSTART _IPC0_SND_ELCOUNT
                 ; 0003 02CB    pHead->Command = SYS_OK;
000463 940e 0b90 	CALL SUBOPT_0x19
                 ;	*pHead -> Y+0
                 ; 0003 02CC    pHead->data1 = (BYTE)((gElCount>>8)&0xff);  //
000465 940e 0bdc 	CALL SUBOPT_0x1E
                 ; 0003 02CD    pHead->data2 = (BYTE)(gElCount&0xff);
                 ; 0003 02CE 
                 ; 0003 02CF    pHead->checksum = MakeCrc( (BYTE *)pHead , sizeof( IPC_HEADER )- 2 );
000467 c034      	RJMP _0x20A000A
                 ; 0003 02D0 
                 ; 0003 02D1    IPC_SendData0( (BYTE *)pHead, sizeof( IPC_HEADER ) );
                 ; 0003 02D2    return TRUE;
                 ; 0003 02D3 
                 ; 0003 02D4 }
                 ; .FEND
                 ;BYTE IPC0_SND_SPEED( LPIPC_HEADER pHead )
                 ; 0003 02D6 {
                 _IPC0_SND_SPEED:
                 ; .FSTART _IPC0_SND_SPEED
                 ; 0003 02D7    pHead->Command = SYS_OK;
000468 940e 0b90 	CALL SUBOPT_0x19
                 ;	*pHead -> Y+0
                 ; 0003 02D8    pHead->data1 = (BYTE)((gSpeed>>8)&0xff);  //
00046a 940e 0bcb 	CALL SUBOPT_0x1D
                 ; 0003 02D9    pHead->data2 = (BYTE)(gSpeed&0xff);
                 ; 0003 02DA 
                 ; 0003 02DB    pHead->checksum = MakeCrc( (BYTE *)pHead , sizeof( IPC_HEADER )- 2 );
00046c c02f      	RJMP _0x20A000A
                 ; 0003 02DC 
                 ; 0003 02DD    IPC_SendData0( (BYTE *)pHead, sizeof( IPC_HEADER ) );
                 ; 0003 02DE    return TRUE;
                 ; 0003 02DF 
                 ; 0003 02E0 }
                 ; .FEND
                 ;
                 ;BYTE IPC0_SND_FLAG( LPIPC_HEADER pHead )
                 ; 0003 02E3 {
                 _IPC0_SND_FLAG:
                 ; .FSTART _IPC0_SND_FLAG
                 ; 0003 02E4 
                 ; 0003 02E5    pHead->Command = SYS_OK;
00046d 940e 0b90 	CALL SUBOPT_0x19
                 ;	*pHead -> Y+0
                 ; 0003 02E6    pHead->data1 = (BYTE)((gFlag>>8)&0xff);  //
00046f 91a0 0512 	LDS  R26,_gFlag
000471 e0e8      	LDI  R30,LOW(8)
000472 940e 0f5b 	CALL __LSRB12
000474 940e 0bed 	CALL SUBOPT_0x1F
                 ; 0003 02E7    pHead->data2 = (BYTE)(gFlag&0xff);
000476 940e 0bf2 	CALL SUBOPT_0x20
                 ; 0003 02E8 
                 ; 0003 02E9    pHead->checksum = MakeCrc( (BYTE *)pHead , sizeof( IPC_HEADER )- 2 );
000478 c023      	RJMP _0x20A000A
                 ; 0003 02EA 
                 ; 0003 02EB    IPC_SendData0( (BYTE *)pHead, sizeof( IPC_HEADER ) );
                 ; 0003 02EC 
                 ; 0003 02ED    return TRUE;
                 ; 0003 02EE 
                 ; 0003 02EF }
                 ; .FEND
                 ;BYTE IPC0_SND_EL_MAP( LPIPC_HEADER pHead )
                 ; 0003 02F1 {
                 _IPC0_SND_EL_MAP:
                 ; .FSTART _IPC0_SND_EL_MAP
                 ; 0003 02F2 
                 ; 0003 02F3    pHead->Command = SYS_OK;
000479 940e 0b66 	CALL SUBOPT_0x14
                 ;	*pHead -> Y+0
                 ; 0003 02F4    pHead->data1 = 0;  //
00047b 940e 0c7c 	CALL SUBOPT_0x2F
                 ; 0003 02F5    pHead->data2 = 0;
                 ; 0003 02F6 
                 ; 0003 02F7    pHead->checksum = MakeCrc( (BYTE *)pHead , sizeof( IPC_HEADER )- 2 );
00047d c01e      	RJMP _0x20A000A
                 ; 0003 02F8 
                 ; 0003 02F9    IPC_SendData0( (BYTE *)pHead, sizeof( IPC_HEADER ) );
                 ; 0003 02FA 
                 ; 0003 02FB    return TRUE;
                 ; 0003 02FC 
                 ; 0003 02FD }
                 ; .FEND
                 ;BYTE IPC0_SND_MOTOR_POS1( LPIPC_HEADER pHead )
                 ; 0003 02FF {
                 _IPC0_SND_MOTOR_POS1:
                 ; .FSTART _IPC0_SND_MOTOR_POS1
                 ; 0003 0300 
                 ; 0003 0301    pHead->Command = SYS_OK;
00047e 940e 0b66 	CALL SUBOPT_0x14
                 ;	*pHead -> Y+0
                 ; 0003 0302    pHead->data1 = 0;  //
000480 940e 0c7c 	CALL SUBOPT_0x2F
                 ; 0003 0303    pHead->data2 = 0;
                 ; 0003 0304 
                 ; 0003 0305    pHead->checksum = MakeCrc( (BYTE *)pHead , sizeof( IPC_HEADER )- 2 );
000482 c019      	RJMP _0x20A000A
                 ; 0003 0306 
                 ; 0003 0307    IPC_SendData0( (BYTE *)pHead, sizeof( IPC_HEADER ) );
                 ; 0003 0308 
                 ; 0003 0309    return TRUE;
                 ; 0003 030A }
                 ; .FEND
                 ;
                 ;BYTE IPC0_SND_MOTOR_POS2( LPIPC_HEADER pHead )
                 ; 0003 030D {
                 _IPC0_SND_MOTOR_POS2:
                 ; .FSTART _IPC0_SND_MOTOR_POS2
                 ; 0003 030E    pHead->Command = SYS_OK;
000483 940e 0b66 	CALL SUBOPT_0x14
                 ;	*pHead -> Y+0
                 ; 0003 030F    pHead->data1 = 0;  //
000485 940e 0c7c 	CALL SUBOPT_0x2F
                 ; 0003 0310    pHead->data2 = 0;
                 ; 0003 0311 
                 ; 0003 0312    pHead->checksum = MakeCrc( (BYTE *)pHead , sizeof( IPC_HEADER )- 2 );
000487 c014      	RJMP _0x20A000A
                 ; 0003 0313 
                 ; 0003 0314    IPC_SendData0( (BYTE *)pHead, sizeof( IPC_HEADER ) );
                 ; 0003 0315 
                 ; 0003 0316    return TRUE;
                 ; 0003 0317 }
                 ; .FEND
                 ;
                 ;BYTE IPC0_SND_ERROR( LPIPC_HEADER pHead )
                 ; 0003 031A {
                 _IPC0_SND_ERROR:
                 ; .FSTART _IPC0_SND_ERROR
                 ; 0003 031B    pHead->Command = SYS_OK;
000488 940e 0b66 	CALL SUBOPT_0x14
                 ;	*pHead -> Y+0
                 ; 0003 031C    pHead->data1 = 0;  //
00048a e0e0      	LDI  R30,LOW(0)
00048b 93ec      	ST   X,R30
                 ; 0003 031D    if( gReadyActionFlag ==FALSE )
00048c 91e0 051c 	LDS  R30,_gReadyActionFlag
00048e 30e0      	CPI  R30,0
00048f f431      	BRNE _0x6003E
                 ; 0003 031E         pHead->data2 = ERROR_NOTLCD;
000490 81a8      	LD   R26,Y
000491 81b9      	LDD  R27,Y+1
000492 9614      	ADIW R26,4
000493 e0e6      	LDI  R30,LOW(6)
000494 93ec      	ST   X,R30
                 ; 0003 031F    else
000495 c006      	RJMP _0x6003F
                 _0x6003E:
                 ; 0003 0320        pHead->data2 = gError;
000496 91e0 0513 	LDS  R30,_gError
                +
000498 81a8     +LDD R26 , Y + 0
000499 81b9     +LDD R27 , Y + 0 + 1
00049a 9614     +ADIW R26 , 4
00049b 93ec     +ST X , R30
                 	__PUTB1SNS 0,4
                 ; 0003 0321 
                 ; 0003 0322    pHead->checksum = MakeCrc( (BYTE *)pHead , sizeof( IPC_HEADER )- 2 );
                 _0x6003F:
                 _0x20A000A:
00049c 81e8      	LD   R30,Y
00049d 81f9      	LDD  R31,Y+1
00049e 93fa      	ST   -Y,R31
00049f 93ea      	ST   -Y,R30
0004a0 940e 0b7e 	CALL SUBOPT_0x17
                 ; 0003 0323 
                 ; 0003 0324    IPC_SendData0( (BYTE *)pHead, sizeof( IPC_HEADER ) );
0004a2 e0a7      	LDI  R26,LOW(7)
0004a3 940e 05dd 	CALL _IPC_SendData0
                 ; 0003 0325 
                 ; 0003 0326    return TRUE;
                 _0x20A000B:
0004a5 e0e1      	LDI  R30,LOW(1)
                 _0x20A000C:
0004a6 9622      	ADIW R28,2
0004a7 9508      	RET
                 ; 0003 0327 
                 ; 0003 0328 }
                 ; .FEND
                 ;void IPC_RunProcess0( void )
                 ; 0003 032A {
                 _IPC_RunProcess0:
                 ; .FSTART _IPC_RunProcess0
                 ; 0003 032B      BYTE RcvHead[30];
                 ; 0003 032C      BYTE RcvByte;
                 ; 0003 032D      BYTE  Crc,RcvCrc;
                 ; 0003 032E      LPIPC_HEADER pHead;
                 ; 0003 032F 
                 ; 0003 0330   //   while( TRUE )
                 ; 0003 0331      {
0004a8 940e 0bfe 	CALL SUBOPT_0x22
                 ;	RcvHead -> Y+6
                 ;	RcvByte -> R17
                 ;	Crc -> R16
                 ;	RcvCrc -> R19
                 ;	*pHead -> R20,R21
                 ; 0003 0332         RcvByte = IPC_RcvData_Interrupt0( RcvHead, sizeof( IPC_HEADER ) );
0004aa 940e 05c6 	CALL _IPC_RcvData_Interrupt0
0004ac 940e 0c07 	CALL SUBOPT_0x23
                 ; 0003 0333         pHead = ( LPIPC_HEADER )RcvHead;
                 ; 0003 0334 
                 ; 0003 0335          Crc =  MakeCrc(  RcvHead , sizeof( IPC_HEADER )- 2 );
                 ; 0003 0336          RcvCrc = pHead->checksum;
                 ; 0003 0337 
                 ; 0003 0338          if(  RcvByte == sizeof( IPC_HEADER ) && RcvCrc == Crc &&
                 ; 0003 0339               pHead->stx == 0x02 && pHead->etx == 0x03 )
0004ae f451      	BRNE _0x60041
0004af 1703      	CP   R16,R19
0004b0 f441      	BRNE _0x60041
0004b1 01da      	MOVW R26,R20
0004b2 91ac      	LD   R26,X
0004b3 30a2      	CPI  R26,LOW(0x2)
0004b4 f421      	BRNE _0x60041
0004b5 01fa      	MOVW R30,R20
0004b6 81a6      	LDD  R26,Z+6
0004b7 30a3      	CPI  R26,LOW(0x3)
0004b8 f009      	BREQ _0x60042
                 _0x60041:
0004b9 c00c      	RJMP _0x60040
                 _0x60042:
                 ; 0003 033A          {
                 ; 0003 033B               if( pHead->RWflag ==  IPC_MODE_READ )
0004ba 01fa      	MOVW R30,R20
0004bb 81a1      	LDD  R26,Z+1
0004bc 35a2      	CPI  R26,LOW(0x52)
0004bd f421      	BRNE _0x60043
                 ; 0003 033C                    IPC_SndProcess0( RcvHead );
0004be 01de      	MOVW R26,R28
0004bf 9616      	ADIW R26,6
0004c0 d03c      	RCALL _IPC_SndProcess0
                 ; 0003 033D               else IPC_RcvProcess0( RcvHead );
0004c1 c003      	RJMP _0x60044
                 _0x60043:
0004c2 01de      	MOVW R26,R28
0004c3 9616      	ADIW R26,6
0004c4 d014      	RCALL _IPC_RcvProcess0
                 ; 0003 033E 
                 ; 0003 033F           }
                 _0x60044:
                 ; 0003 0340           else
0004c5 c007      	RJMP _0x60045
                 _0x60040:
                 ; 0003 0341           {
                 ; 0003 0342              IPC_Send_Response0( RcvHead, SYS_ERROR);
0004c6 01fe      	MOVW R30,R28
0004c7 9636      	ADIW R30,6
0004c8 93fa      	ST   -Y,R31
0004c9 93ea      	ST   -Y,R30
0004ca e8a1      	LDI  R26,LOW(129)
0004cb d005      	RCALL _IPC_Send_Response0
                 ; 0003 0343              IPC_ResetCount0();
0004cc d0ec      	RCALL _IPC_ResetCount0
                 ; 0003 0344           }
                 _0x60045:
                 ; 0003 0345 
                 ; 0003 0346      }
                 ; 0003 0347 
                 ; 0003 0348 }
                 _0x20A0009:
0004cd 940e 0fc3 	CALL __LOADLOCR6
0004cf 96a4      	ADIW R28,36
0004d0 9508      	RET
                 ; .FEND
                 ; void IPC_Send_Response0( BYTE *Data, BYTE Res )
                 ; 0003 034A {
                 _IPC_Send_Response0:
                 ; .FSTART _IPC_Send_Response0
                 ; 0003 034B      LPIPC_HEADER mLpHead;
                 ; 0003 034C 
                 ; 0003 034D      mLpHead = (LPIPC_HEADER)Data;
0004d1 940e 0c1d 	CALL SUBOPT_0x25
                 ;	*Data -> Y+3
                 ;	Res -> Y+2
                 ;	*mLpHead -> R16,R17
                 ; 0003 034E 
                 ; 0003 034F      mLpHead->Command = Res;
                 ; 0003 0350      mLpHead->data1 = 0;
                 ; 0003 0351      mLpHead->data2 = 0;
                 ; 0003 0352      mLpHead-> checksum = MakeCrc( (BYTE *)mLpHead , sizeof( IPC_HEADER )- 2 );
                 ; 0003 0353 
                 ; 0003 0354      IPC_SendData0( Data, sizeof( IPC_HEADER ) );
0004d3 940e 05dd 	CALL _IPC_SendData0
                 ; 0003 0355 }
                 _0x20A0008:
0004d5 8119      	LDD  R17,Y+1
0004d6 8108      	LDD  R16,Y+0
0004d7 9625      	ADIW R28,5
0004d8 9508      	RET
                 ; .FEND
                 ;
                 ;void IPC_RcvProcess0( BYTE *Data )
                 ; 0003 0358 {
                 _IPC_RcvProcess0:
                 ; .FSTART _IPC_RcvProcess0
                 ; 0003 0359       LPIPC_HEADER pHead;
                 ; 0003 035A 
                 ; 0003 035B       pHead   = (LPIPC_HEADER)Data;
0004d9 940e 0b5c 	CALL SUBOPT_0x12
                 ;	*Data -> Y+2
                 ;	*pHead -> R16,R17
0004db 940e 0c3c 	CALL SUBOPT_0x26
                 ; 0003 035C       if(  pHead->Command < sizeof(IPC0Rcvfun)/2 )
0004dd f4b8      	BRSH _0x60046
                 ; 0003 035D       {
                 ; 0003 035E              if( IPC0Rcvfun[pHead->Command]( pHead ) == TRUE )        //  Run Command
0004de 01f8      	MOVW R30,R16
0004df 81e2      	LDD  R30,Z+2
0004e0 e4af      	LDI  R26,LOW(_IPC0Rcvfun)
0004e1 e0b5      	LDI  R27,HIGH(_IPC0Rcvfun)
0004e2 940e 0c42 	CALL SUBOPT_0x27
0004e4 93ff      	PUSH R31
0004e5 93ef      	PUSH R30
0004e6 01d8      	MOVW R26,R16
0004e7 91ef      	POP  R30
0004e8 91ff      	POP  R31
0004e9 9509      	ICALL
0004ea 30e1      	CPI  R30,LOW(0x1)
0004eb f421      	BRNE _0x60047
                 ; 0003 035F              {
                 ; 0003 0360                  IPC_Send_Response0( Data, SYS_OK );
0004ec 940e 0c4a 	CALL SUBOPT_0x28
0004ee e8a0      	LDI  R26,LOW(128)
0004ef c003      	RJMP _0x6004F
                 ; 0003 0361              }
                 ; 0003 0362              else
                 _0x60047:
                 ; 0003 0363              {
                 ; 0003 0364                  IPC_Send_Response0( Data, SYS_ERROR);
0004f0 940e 0c4a 	CALL SUBOPT_0x28
0004f2 e8a1      	LDI  R26,LOW(129)
                 _0x6004F:
0004f3 dfdd      	RCALL _IPC_Send_Response0
                 ; 0003 0365               }
                 ; 0003 0366        }
                 ; 0003 0367        else
0004f4 c004      	RJMP _0x60049
                 _0x60046:
                 ; 0003 0368        {
                 ; 0003 0369            IPC_Send_Response0( Data, SYS_ERROR );
0004f5 940e 0c4a 	CALL SUBOPT_0x28
0004f7 e8a1      	LDI  R26,LOW(129)
0004f8 dfd8      	RCALL _IPC_Send_Response0
                 ; 0003 036A         }
                 _0x60049:
                 ; 0003 036B 
                 ; 0003 036C }
0004f9 8119      	LDD  R17,Y+1
0004fa 8108      	LDD  R16,Y+0
0004fb 940c 05e9 	JMP  _0x20A0003
                 ; .FEND
                 ;
                 ;
                 ;void IPC_SndProcess0( BYTE *Data )
                 ; 0003 0370 {
                 _IPC_SndProcess0:
                 ; .FSTART _IPC_SndProcess0
                 ; 0003 0371       LPIPC_HEADER pHead;
                 ; 0003 0372 
                 ; 0003 0373       pHead = (LPIPC_HEADER)Data;
0004fd 940e 0b5c 	CALL SUBOPT_0x12
                 ;	*Data -> Y+2
                 ;	*pHead -> R16,R17
0004ff 940e 0c3c 	CALL SUBOPT_0x26
                 ; 0003 0374       if( pHead->Command < sizeof(IPC0Sndfun)/2  )
000501 f498      	BRSH _0x6004A
                 ; 0003 0375       {
                 ; 0003 0376           if( IPC0Sndfun[pHead->Command]( pHead ) == FALSE )        //  Run Command
000502 01f8      	MOVW R30,R16
000503 81e2      	LDD  R30,Z+2
000504 e6a7      	LDI  R26,LOW(_IPC0Sndfun)
000505 e0b5      	LDI  R27,HIGH(_IPC0Sndfun)
000506 940e 0c42 	CALL SUBOPT_0x27
000508 93ff      	PUSH R31
000509 93ef      	PUSH R30
00050a 01d8      	MOVW R26,R16
00050b 91ef      	POP  R30
00050c 91ff      	POP  R31
00050d 9509      	ICALL
00050e 30e0      	CPI  R30,0
00050f f421      	BRNE _0x6004B
                 ; 0003 0377               IPC_Send_Response0( Data, SYS_ERROR );
000510 940e 0c4a 	CALL SUBOPT_0x28
000512 e8a1      	LDI  R26,LOW(129)
000513 dfbd      	RCALL _IPC_Send_Response0
                 ; 0003 0378       }
                 _0x6004B:
                 ; 0003 0379       else
000514 c004      	RJMP _0x6004C
                 _0x6004A:
                 ; 0003 037A       {
                 ; 0003 037B            IPC_Send_Response0( Data, SYS_ERROR );
000515 940e 0c4a 	CALL SUBOPT_0x28
000517 e8a1      	LDI  R26,LOW(129)
000518 dfb8      	RCALL _IPC_Send_Response0
                 ; 0003 037C       }
                 _0x6004C:
                 ; 0003 037D }
000519 8119      	LDD  R17,Y+1
00051a 8108      	LDD  R16,Y+0
00051b 940c 05e9 	JMP  _0x20A0003
                 ; .FEND
                 ;#include <stdarg.h>
                 ;#include <stdio.h>
                 	#ifndef __SLEEP_DEFINED__
                 	#endif
                 ;#include "uart.h"
                 ;
                 ;#define RXB8 1
                 ;#define TXB8 0
                 ;#define UPE  2
                 ;#define OVR  3
                 ;#define FE   4
                 ;#define UDRE 5
                 ;#define RXC  7
                 ;
                 ;#define FRAMING_ERROR (1<<FE)
                 ;#define PARITY_ERROR (1<<UPE)
                 ;#define DATA_OVERRUN (1<<OVR)
                 ;#define DATA_REGISTER_EMPTY (1<<UDRE)
                 ;#define RX_COMPLETE (1<<RXC)
                 ;
                 ;extern WORD  gTime1ms;
                 ;
                 ;#define RX_BUFFER_SIZE0 250
                 ;char rx_buffer0[RX_BUFFER_SIZE0];
                 ;unsigned char rx_wr_index0=0,rx_rd_index0=0,rx_counter0=0;
                 ;BOOL rx_buffer_overflow0=FALSE;
                 ;char mRcvErrFlag0 = 0;
                 ;
                 ;#define RX_BUFFER_SIZE1 250
                 ;char rx_buffer1[RX_BUFFER_SIZE1];
                 ;unsigned char rx_wr_index1=0,rx_rd_index1=0,rx_counter1=0;
                 ;BOOL rx_buffer_overflow1=FALSE;
                 ;char mRcvErrFlag1 = 0;
                 ;
                 ;// USART1 Receiver interrupt service routine
                 ;interrupt [USART1_RXC] void usart1_rx_isr(void)
                 ; 0004 0023 {
                 
                 	.CSEG
                 _usart1_rx_isr:
                 ; .FSTART _usart1_rx_isr
00051d 940e 0c83 	CALL SUBOPT_0x30
                 ; 0004 0024    char status,data;
                 ; 0004 0025    status = UCSR1A;
                 ;	status -> R17
                 ;	data -> R16
00051f 9110 009b 	LDS  R17,155
                 ; 0004 0026    data   = UDR1;
000521 9100 009c 	LDS  R16,156
                 ; 0004 0027 
                 ; 0004 0028    if ((status & (FRAMING_ERROR | PARITY_ERROR | DATA_OVERRUN))==0 )
000523 2fe1      	MOV  R30,R17
000524 71ec      	ANDI R30,LOW(0x1C)
000525 f489      	BRNE _0x80003
                 ; 0004 0029    {
                 ; 0004 002A       rx_buffer1[rx_wr_index1++]=data;
000526 2de8      	MOV  R30,R8
000527 9483      	INC  R8
000528 e0f0      	LDI  R31,0
000529 58e7      	SUBI R30,LOW(-_rx_buffer1)
00052a 4ff9      	SBCI R31,HIGH(-_rx_buffer1)
00052b 8300      	ST   Z,R16
                 ; 0004 002B       if (rx_wr_index1 == RX_BUFFER_SIZE1) rx_wr_index1=0;
00052c efea      	LDI  R30,LOW(250)
00052d 15e8      	CP   R30,R8
00052e f409      	BRNE _0x80004
00052f 2488      	CLR  R8
                 ; 0004 002C       if (++rx_counter1 == RX_BUFFER_SIZE1)
                 _0x80004:
000530 94a3      	INC  R10
000531 efea      	LDI  R30,LOW(250)
000532 15ea      	CP   R30,R10
000533 f419      	BRNE _0x80005
                 ; 0004 002D       {
                 ; 0004 002E          rx_counter1 = 0;
000534 24aa      	CLR  R10
                 ; 0004 002F          rx_buffer_overflow1 = TRUE;
000535 e0e1      	LDI  R30,LOW(1)
000536 2ede      	MOV  R13,R30
                 ; 0004 0030       }
                 ; 0004 0031       //gOldUartTime1ms = gTime1ms;
                 ; 0004 0032    }
                 _0x80005:
                 ; 0004 0033 }
                 _0x80003:
000537 c05f      	RJMP _0x80059
                 ; .FEND
                 ;
                 ;// Get a character from the USART1 Receiver buffer
                 ;//#pragma used+
                 ;char getchar1( void )
                 ; 0004 0038 {
                 _getchar1:
                 ; .FSTART _getchar1
                 ; 0004 0039    char data;
                 ; 0004 003A    //while (rx_counter1==0);
                 ; 0004 003B     if( rx_counter1 >0 )
000538 931a      	ST   -Y,R17
                 ;	data -> R17
000539 e0e0      	LDI  R30,LOW(0)
00053a 15ea      	CP   R30,R10
00053b f480      	BRSH _0x80006
                 ; 0004 003C     {
                 ; 0004 003D       data = rx_buffer1[rx_rd_index1++];
00053c 2deb      	MOV  R30,R11
00053d 94b3      	INC  R11
00053e e0f0      	LDI  R31,0
00053f 58e7      	SUBI R30,LOW(-_rx_buffer1)
000540 4ff9      	SBCI R31,HIGH(-_rx_buffer1)
000541 8110      	LD   R17,Z
                 ; 0004 003E       if (rx_rd_index1 == RX_BUFFER_SIZE1) rx_rd_index1=0;
000542 efea      	LDI  R30,LOW(250)
000543 15eb      	CP   R30,R11
000544 f409      	BRNE _0x80007
000545 24bb      	CLR  R11
                 ; 0004 003F 
                 ; 0004 0040        #asm("cli")
                 _0x80007:
000546 94f8      	cli
                 ; 0004 0041        --rx_counter1;
000547 94aa      	DEC  R10
                 ; 0004 0042        #asm("sei")
000548 9478      	sei
                 ; 0004 0043        mRcvErrFlag1 = 0;
000549 24cc      	CLR  R12
                 ; 0004 0044        return data;
00054a 2fe1      	MOV  R30,R17
00054b c069      	RJMP _0x20A0007
                 ; 0004 0045     }
                 ; 0004 0046     else
                 _0x80006:
                 ; 0004 0047     {
                 ; 0004 0048        mRcvErrFlag1 = 1;
00054c e0e1      	LDI  R30,LOW(1)
00054d 2ece      	MOV  R12,R30
                 ; 0004 0049        return 0;
00054e e0e0      	LDI  R30,LOW(0)
00054f c065      	RJMP _0x20A0007
                 ; 0004 004A     }
                 ; 0004 004B }
                 ; .FEND
                 ;
                 ;//#pragma used-
                 ;BYTE  IPC_Get_RxCount1( void )
                 ; 0004 004F {
                 _IPC_Get_RxCount1:
                 ; .FSTART _IPC_Get_RxCount1
                 ; 0004 0050    return rx_counter1;
000550 2dea      	MOV  R30,R10
000551 9508      	RET
                 ; 0004 0051 }
                 ; .FEND
                 ;
                 ;void IPC_ResetCount1( void )
                 ; 0004 0054 {
                 _IPC_ResetCount1:
                 ; .FSTART _IPC_ResetCount1
                 ; 0004 0055    #asm("cli")
000552 94f8      	cli
                 ; 0004 0056    rx_counter1 = 0;
000553 24aa      	CLR  R10
                 ; 0004 0057    rx_rd_index1 = 0;
000554 24bb      	CLR  R11
                 ; 0004 0058    rx_wr_index1 = 0;
000555 2488      	CLR  R8
                 ; 0004 0059    #asm("sei")
000556 9478      	sei
                 ; 0004 005A }
000557 9508      	RET
                 ; .FEND
                 ;
                 ;char Mygetchar1( BYTE flag )
                 ; 0004 005D {
                 ; 0004 005E       WORD oldTime1ms;
                 ; 0004 005F       char status,data;
                 ; 0004 0060 
                 ; 0004 0061       while ( 1 )
                 ;	flag -> Y+4
                 ;	oldTime1ms -> R16,R17
                 ;	status -> R19
                 ;	data -> R18
                 ; 0004 0062       {
                 ; 0004 0063           if( flag )
                 ; 0004 0064                oldTime1ms = gTime1ms;
                 ; 0004 0065 
                 ; 0004 0066           while ( ((status=UCSR1A) & RX_COMPLETE) == 0 )
                 ; 0004 0067           {
                 ; 0004 0068               if( flag )
                 ; 0004 0069               {
                 ; 0004 006A                  if( (gTime1ms - oldTime1ms) > 300 ) //old 300
                 ; 0004 006B                  {
                 ; 0004 006C                       return 0;
                 ; 0004 006D                  }
                 ; 0004 006E               }
                 ; 0004 006F           };
                 ; 0004 0070 
                 ; 0004 0071           data = UDR1;
                 ; 0004 0072           if ((status & (FRAMING_ERROR | PARITY_ERROR | DATA_OVERRUN))==0)
                 ; 0004 0073           return data;
                 ; 0004 0074       };
                 ; 0004 0075 }
                 ;
                 ;char Tgetchar1( void )
                 ; 0004 0078 {
                 ; 0004 0079       char status,data;
                 ; 0004 007A       while ( 1 )
                 ;	status -> R17
                 ;	data -> R16
                 ; 0004 007B       {
                 ; 0004 007C           while ( ((status=UCSR1A) & RX_COMPLETE)==0 );
                 ; 0004 007D               data = UDR1;
                 ; 0004 007E           if ((status & (FRAMING_ERROR | PARITY_ERROR | DATA_OVERRUN))==0)
                 ; 0004 007F          return data;
                 ; 0004 0080       };
                 ; 0004 0081 }
                 ;
                 ;void Tputchar1( char c )
                 ; 0004 0084 {
                 _Tputchar1:
                 ; .FSTART _Tputchar1
                 ; 0004 0085      while ((UCSR1A & DATA_REGISTER_EMPTY)==0);
000558 93aa      	ST   -Y,R26
                 ;	c -> Y+0
                 _0x8001A:
000559 91e0 009b 	LDS  R30,155
00055b 72e0      	ANDI R30,LOW(0x20)
00055c f3e1      	BREQ _0x8001A
                 ; 0004 0086      UDR1 = c;
00055d 81e8      	LD   R30,Y
00055e 93e0 009c 	STS  156,R30
                 ; 0004 0087 }
000560 c063      	RJMP _0x20A0006
                 ; .FEND
                 ;
                 ;void Usrprintf1( char  *string )
                 ; 0004 008A {
                 ; 0004 008B     while( *string != '\0' )
                 ;	*string -> Y+0
                 ; 0004 008C     {
                 ; 0004 008D         Tputchar1(*string++);
                 ; 0004 008E     }
                 ; 0004 008F }
                 ;
                 ;void FlashUsrprintf1( const char *string )
                 ; 0004 0092 {
                 ; 0004 0093     while( *string != '\0' )
                 ;	*string -> Y+0
                 ; 0004 0094     {
                 ; 0004 0095         Tputchar1(*string++);
                 ; 0004 0096     }
                 ; 0004 0097 }
                 ;
                 ;void MyPrint1( char flash* format, ...)
                 ; 0004 009A {
                 ; 0004 009B       char str[100];
                 ; 0004 009C 
                 ; 0004 009D       va_list arg;
                 ; 0004 009E       va_start(arg, format);
                 ;	*format -> Y+102
                 ;	str -> Y+2
                 ;	*arg -> R16,R17
                 ; 0004 009F 
                 ; 0004 00A0       vsprintf( str, format, arg);
                 ; 0004 00A1       va_end(arg);
                 ; 0004 00A2 
                 ; 0004 00A3       Usrprintf1( str ); // putchar1()   .- ~
                 ; 0004 00A4 }
                 ;
                 ;BYTE  IPC_RcvData1( BYTE *Buffer, BYTE len )
                 ; 0004 00A7 {
                 ; 0004 00A8    BYTE i=0;
                 ; 0004 00A9 
                 ; 0004 00AA    while( i < len )
                 ;	*Buffer -> Y+2
                 ;	len -> Y+1
                 ;	i -> R17
                 ; 0004 00AB    {
                 ; 0004 00AC         Buffer[i] = Mygetchar1(i);
                 ; 0004 00AD         i++;
                 ; 0004 00AE    }
                 ; 0004 00AF    return  i;
                 ; 0004 00B0 }
                 ;
                 ;
                 ;BYTE  IPC_RcvData_Interrupt1( BYTE *Buffer, BYTE len )
                 ; 0004 00B4 {
                 _IPC_RcvData_Interrupt1:
                 ; .FSTART _IPC_RcvData_Interrupt1
                 ; 0004 00B5    BYTE i=0;
                 ; 0004 00B6    char dat = 0;
                 ; 0004 00B7    WORD oldTime1ms;
                 ; 0004 00B8    oldTime1ms = gTime1ms;
000561 940e 0c8a 	CALL SUBOPT_0x31
                 ;	*Buffer -> Y+5
                 ;	len -> Y+4
                 ;	i -> R17
                 ;	dat -> R16
                 ;	oldTime1ms -> R18,R19
                 ; 0004 00B9 
                 ; 0004 00BA    while( i < len )
                 _0x80026:
000563 81ec      	LDD  R30,Y+4
000564 171e      	CP   R17,R30
000565 f468      	BRSH _0x80028
                 ; 0004 00BB    {
                 ; 0004 00BC        dat = getchar1();
000566 dfd1      	RCALL _getchar1
000567 2f0e      	MOV  R16,R30
                 ; 0004 00BD        if( mRcvErrFlag1 == 0  )
000568 20cc      	TST  R12
000569 f411      	BRNE _0x80029
                 ; 0004 00BE        {
                 ; 0004 00BF           Buffer[i] = dat;
00056a 940e 0c94 	CALL SUBOPT_0x32
                 ; 0004 00C0           i++;
                 ; 0004 00C1        }
                 ; 0004 00C2        if( (gTime1ms - oldTime1ms) > 3000 ) //old 300
                 _0x80029:
00056c 940e 0c9d 	CALL SUBOPT_0x33
00056e f018      	BRLO _0x8002A
                 ; 0004 00C3        {
                 ; 0004 00C4           IPC_ResetCount1();
00056f dfe2      	RCALL _IPC_ResetCount1
                 ; 0004 00C5           return 0;
000570 e0e0      	LDI  R30,LOW(0)
000571 c067      	RJMP _0x20A0004
                 ; 0004 00C6        }
                 ; 0004 00C7    }
                 _0x8002A:
000572 cff0      	RJMP _0x80026
                 _0x80028:
                 ; 0004 00C8    return  i;
000573 c064      	RJMP _0x20A0005
                 ; 0004 00C9 }
                 ; .FEND
                 ;
                 ;BYTE IPC_SendData1( BYTE *Buffer, BYTE len )
                 ; 0004 00CC {
                 _IPC_SendData1:
                 ; .FSTART _IPC_SendData1
                 ; 0004 00CD    BYTE i;
                 ; 0004 00CE    i= 0;
000574 93aa      	ST   -Y,R26
000575 931a      	ST   -Y,R17
                 ;	*Buffer -> Y+2
                 ;	len -> Y+1
                 ;	i -> R17
000576 e010      	LDI  R17,LOW(0)
                 ; 0004 00CF    while( i < len )
                 _0x8002B:
000577 81e9      	LDD  R30,Y+1
000578 171e      	CP   R17,R30
000579 f420      	BRSH _0x8002D
                 ; 0004 00D0    {
                 ; 0004 00D1      Tputchar1(Buffer[i++]);
00057a 940e 0ca7 	CALL SUBOPT_0x34
00057c dfdb      	RCALL _Tputchar1
                 ; 0004 00D2    }
00057d cff9      	RJMP _0x8002B
                 _0x8002D:
                 ; 0004 00D3 
                 ; 0004 00D4    return  i;
00057e c068      	RJMP _0x20A0002
                 ; 0004 00D5 }
                 ; .FEND
                 ;
                 ;
                 ;// USART0 Receiver interrupt service routine
                 ;interrupt [USART0_RXC] void usart0_rx_isr(void)
                 ; 0004 00DA {
                 _usart0_rx_isr:
                 ; .FSTART _usart0_rx_isr
00057f 940e 0c83 	CALL SUBOPT_0x30
                 ; 0004 00DB    char status,data;
                 ; 0004 00DC    status=UCSR0A;
                 ;	status -> R17
                 ;	data -> R16
000581 b11b      	IN   R17,11
                 ; 0004 00DD    data=UDR0;
000582 b10c      	IN   R16,12
                 ; 0004 00DE 
                 ; 0004 00DF    if ((status & (FRAMING_ERROR | PARITY_ERROR | DATA_OVERRUN))==0)
000583 2fe1      	MOV  R30,R17
000584 71ec      	ANDI R30,LOW(0x1C)
000585 f489      	BRNE _0x8002E
                 ; 0004 00E0    {
                 ; 0004 00E1       rx_buffer0[rx_wr_index0++]=data;
000586 2de5      	MOV  R30,R5
000587 9453      	INC  R5
000588 e0f0      	LDI  R31,0
000589 58e1      	SUBI R30,LOW(-_rx_buffer0)
00058a 4ffa      	SBCI R31,HIGH(-_rx_buffer0)
00058b 8300      	ST   Z,R16
                 ; 0004 00E2       if (rx_wr_index0 == RX_BUFFER_SIZE0) rx_wr_index0=0;
00058c efea      	LDI  R30,LOW(250)
00058d 15e5      	CP   R30,R5
00058e f409      	BRNE _0x8002F
00058f 2455      	CLR  R5
                 ; 0004 00E3       if (++rx_counter0 == RX_BUFFER_SIZE0)
                 _0x8002F:
000590 9473      	INC  R7
000591 efea      	LDI  R30,LOW(250)
000592 15e7      	CP   R30,R7
000593 f419      	BRNE _0x80030
                 ; 0004 00E4       {
                 ; 0004 00E5         rx_counter0=0;
000594 2477      	CLR  R7
                 ; 0004 00E6         rx_buffer_overflow0=TRUE;
000595 e0e1      	LDI  R30,LOW(1)
000596 2e6e      	MOV  R6,R30
                 ; 0004 00E7       }
                 ; 0004 00E8    }
                 _0x80030:
                 ; 0004 00E9 }
                 _0x8002E:
                 _0x80059:
000597 9109      	LD   R16,Y+
000598 9119      	LD   R17,Y+
000599 91e9      	LD   R30,Y+
00059a bfef      	OUT  SREG,R30
00059b 91f9      	LD   R31,Y+
00059c 91e9      	LD   R30,Y+
00059d 9518      	RETI
                 ; .FEND
                 ;
                 ;// Get a character from the USART1 Receiver buffer
                 ;char getchar0( void )
                 ; 0004 00ED {
                 _getchar0:
                 ; .FSTART _getchar0
                 ; 0004 00EE     char data;
                 ; 0004 00EF     if( rx_counter0 >0 )
00059e 931a      	ST   -Y,R17
                 ;	data -> R17
00059f e0e0      	LDI  R30,LOW(0)
0005a0 15e7      	CP   R30,R7
0005a1 f480      	BRSH _0x80031
                 ; 0004 00F0     {
                 ; 0004 00F1       data = rx_buffer0[rx_rd_index0++];
0005a2 2de4      	MOV  R30,R4
0005a3 9443      	INC  R4
0005a4 e0f0      	LDI  R31,0
0005a5 58e1      	SUBI R30,LOW(-_rx_buffer0)
0005a6 4ffa      	SBCI R31,HIGH(-_rx_buffer0)
0005a7 8110      	LD   R17,Z
                 ; 0004 00F2       if (rx_rd_index0 == RX_BUFFER_SIZE0) rx_rd_index0=0;
0005a8 efea      	LDI  R30,LOW(250)
0005a9 15e4      	CP   R30,R4
0005aa f409      	BRNE _0x80032
0005ab 2444      	CLR  R4
                 ; 0004 00F3 
                 ; 0004 00F4        #asm("cli")
                 _0x80032:
0005ac 94f8      	cli
                 ; 0004 00F5        --rx_counter0;
0005ad 947a      	DEC  R7
                 ; 0004 00F6        #asm("sei")
0005ae 9478      	sei
                 ; 0004 00F7        mRcvErrFlag0 = 0;
0005af 2499      	CLR  R9
                 ; 0004 00F8        return data;
0005b0 2fe1      	MOV  R30,R17
0005b1 c003      	RJMP _0x20A0007
                 ; 0004 00F9     }
                 ; 0004 00FA     else
                 _0x80031:
                 ; 0004 00FB     {
                 ; 0004 00FC        mRcvErrFlag0 = 1;
0005b2 e0e1      	LDI  R30,LOW(1)
0005b3 2e9e      	MOV  R9,R30
                 ; 0004 00FD        return 0;
0005b4 e0e0      	LDI  R30,LOW(0)
                 ; 0004 00FE     }
                 ; 0004 00FF }
                 _0x20A0007:
0005b5 9119      	LD   R17,Y+
0005b6 9508      	RET
                 ; .FEND
                 ;
                 ;//#pragma used-
                 ;BYTE  IPC_Get_RxCount0( void )
                 ; 0004 0103 {
                 _IPC_Get_RxCount0:
                 ; .FSTART _IPC_Get_RxCount0
                 ; 0004 0104    return rx_counter0;
0005b7 2de7      	MOV  R30,R7
0005b8 9508      	RET
                 ; 0004 0105 }
                 ; .FEND
                 ;
                 ;void IPC_ResetCount0( void )
                 ; 0004 0108 {
                 _IPC_ResetCount0:
                 ; .FSTART _IPC_ResetCount0
                 ; 0004 0109    #asm("cli")
0005b9 94f8      	cli
                 ; 0004 010A    rx_counter0 = 0;
0005ba 2477      	CLR  R7
                 ; 0004 010B    rx_rd_index0 = 0;
0005bb 2444      	CLR  R4
                 ; 0004 010C    rx_wr_index0 = 0;
0005bc 2455      	CLR  R5
                 ; 0004 010D    #asm("sei")
0005bd 9478      	sei
                 ; 0004 010E }
0005be 9508      	RET
                 ; .FEND
                 ;
                 ;char Mygetchar0( BYTE flag )
                 ; 0004 0111 {
                 ; 0004 0112       WORD oldTime1ms;
                 ; 0004 0113       char status,data;
                 ; 0004 0114 
                 ; 0004 0115       while ( 1 )
                 ;	flag -> Y+4
                 ;	oldTime1ms -> R16,R17
                 ;	status -> R19
                 ;	data -> R18
                 ; 0004 0116       {
                 ; 0004 0117           if( flag )
                 ; 0004 0118                oldTime1ms = gTime1ms;
                 ; 0004 0119 
                 ; 0004 011A           while ( ((status=UCSR0A) & RX_COMPLETE) == 0 )
                 ; 0004 011B           {
                 ; 0004 011C               if( flag )
                 ; 0004 011D               {
                 ; 0004 011E                  if( (gTime1ms - oldTime1ms) > 300 ) //old 300
                 ; 0004 011F                  {
                 ; 0004 0120                       return 0;
                 ; 0004 0121                  }
                 ; 0004 0122               }
                 ; 0004 0123           };
                 ; 0004 0124 
                 ; 0004 0125           data = UDR0;
                 ; 0004 0126           if ((status & (FRAMING_ERROR | PARITY_ERROR | DATA_OVERRUN))==0)
                 ; 0004 0127           return data;
                 ; 0004 0128       };
                 ; 0004 0129 }
                 ;
                 ;char Tgetchar0( void )
                 ; 0004 012C {
                 ; 0004 012D       char status,data;
                 ; 0004 012E       while ( 1 )
                 ;	status -> R17
                 ;	data -> R16
                 ; 0004 012F       {
                 ; 0004 0130           while ( ((status=UCSR0A) & RX_COMPLETE)==0 );
                 ; 0004 0131               data = UDR0;
                 ; 0004 0132           if ((status & (FRAMING_ERROR | PARITY_ERROR | DATA_OVERRUN))==0)
                 ; 0004 0133          return data;
                 ; 0004 0134       };
                 ; 0004 0135 }
                 ;
                 ;void Tputchar0( char c )
                 ; 0004 0138 {
                 _Tputchar0:
                 ; .FSTART _Tputchar0
                 ; 0004 0139      while ((UCSR0A & DATA_REGISTER_EMPTY)==0);
0005bf 93aa      	ST   -Y,R26
                 ;	c -> Y+0
                 _0x80045:
0005c0 9b5d      	SBIS 0xB,5
0005c1 cffe      	RJMP _0x80045
                 ; 0004 013A      UDR0 = c;
0005c2 81e8      	LD   R30,Y
0005c3 b9ec      	OUT  0xC,R30
                 ; 0004 013B }
                 _0x20A0006:
0005c4 9621      	ADIW R28,1
0005c5 9508      	RET
                 ; .FEND
                 ;
                 ;void Usrprintf0( char  *string )
                 ; 0004 013E {
                 ; 0004 013F     while( *string != '\0' )
                 ;	*string -> Y+0
                 ; 0004 0140     {
                 ; 0004 0141         Tputchar0(*string++);
                 ; 0004 0142     }
                 ; 0004 0143 }
                 ;
                 ;void FlashUsrprintf0( const char *string )
                 ; 0004 0146 {
                 ; 0004 0147     while( *string != '\0' )
                 ;	*string -> Y+0
                 ; 0004 0148     {
                 ; 0004 0149         Tputchar0(*string++);
                 ; 0004 014A     }
                 ; 0004 014B }
                 ;
                 ;void MyPrint0( char flash* format, ...)
                 ; 0004 014E {
                 ; 0004 014F       char str[100];
                 ; 0004 0150 
                 ; 0004 0151       va_list arg;
                 ; 0004 0152       va_start(arg, format);
                 ;	*format -> Y+102
                 ;	str -> Y+2
                 ;	*arg -> R16,R17
                 ; 0004 0153 
                 ; 0004 0154       vsprintf( str, format, arg);
                 ; 0004 0155       va_end(arg);
                 ; 0004 0156 
                 ; 0004 0157       Usrprintf0( str ); // putchar1()   .- ~
                 ; 0004 0158 }
                 ;
                 ;BYTE  IPC_RcvData0( BYTE *Buffer, BYTE len )
                 ; 0004 015B {
                 ; 0004 015C    BYTE i=0;
                 ; 0004 015D 
                 ; 0004 015E    while( i < len )
                 ;	*Buffer -> Y+2
                 ;	len -> Y+1
                 ;	i -> R17
                 ; 0004 015F    {
                 ; 0004 0160         Buffer[i] = Mygetchar0(i);
                 ; 0004 0161         i++;
                 ; 0004 0162    }
                 ; 0004 0163    return  i;
                 ; 0004 0164 }
                 ;
                 ;BYTE IPC_RcvData_Interrupt0( BYTE *Buffer, BYTE len )
                 ; 0004 0167 {
                 _IPC_RcvData_Interrupt0:
                 ; .FSTART _IPC_RcvData_Interrupt0
                 ; 0004 0168    BYTE i=0;
                 ; 0004 0169    char dat = 0;
                 ; 0004 016A    WORD oldTime1ms;
                 ; 0004 016B    oldTime1ms = gTime1ms;
0005c6 940e 0c8a 	CALL SUBOPT_0x31
                 ;	*Buffer -> Y+5
                 ;	len -> Y+4
                 ;	i -> R17
                 ;	dat -> R16
                 ;	oldTime1ms -> R18,R19
                 ; 0004 016C 
                 ; 0004 016D    while( i < len )
                 _0x80051:
0005c8 81ec      	LDD  R30,Y+4
0005c9 171e      	CP   R17,R30
0005ca f468      	BRSH _0x80053
                 ; 0004 016E    {
                 ; 0004 016F        dat = getchar0();
0005cb dfd2      	RCALL _getchar0
0005cc 2f0e      	MOV  R16,R30
                 ; 0004 0170        if( mRcvErrFlag0 == 0  )
0005cd 2099      	TST  R9
0005ce f411      	BRNE _0x80054
                 ; 0004 0171        {
                 ; 0004 0172           Buffer[i] = dat;
0005cf 940e 0c94 	CALL SUBOPT_0x32
                 ; 0004 0173           i++;
                 ; 0004 0174        }
                 ; 0004 0175        if( (gTime1ms - oldTime1ms) > 3000 ) //old 300
                 _0x80054:
0005d1 940e 0c9d 	CALL SUBOPT_0x33
0005d3 f018      	BRLO _0x80055
                 ; 0004 0176        {
                 ; 0004 0177           IPC_ResetCount0();
0005d4 dfe4      	RCALL _IPC_ResetCount0
                 ; 0004 0178           return 0;
0005d5 e0e0      	LDI  R30,LOW(0)
0005d6 c002      	RJMP _0x20A0004
                 ; 0004 0179        }
                 ; 0004 017A    }
                 _0x80055:
0005d7 cff0      	RJMP _0x80051
                 _0x80053:
                 ; 0004 017B    return  i;
                 _0x20A0005:
0005d8 2fe1      	MOV  R30,R17
                 _0x20A0004:
0005d9 940e 0fc5 	CALL __LOADLOCR4
0005db 9627      	ADIW R28,7
0005dc 9508      	RET
                 ; 0004 017C }
                 ; .FEND
                 ;
                 ;BYTE IPC_SendData0( BYTE *Buffer, BYTE len )
                 ; 0004 017F {
                 _IPC_SendData0:
                 ; .FSTART _IPC_SendData0
                 ; 0004 0180    BYTE i;
                 ; 0004 0181    i= 0;
0005dd 93aa      	ST   -Y,R26
0005de 931a      	ST   -Y,R17
                 ;	*Buffer -> Y+2
                 ;	len -> Y+1
                 ;	i -> R17
0005df e010      	LDI  R17,LOW(0)
                 ; 0004 0182    while( i < len )
                 _0x80056:
0005e0 81e9      	LDD  R30,Y+1
0005e1 171e      	CP   R17,R30
0005e2 f420      	BRSH _0x80058
                 ; 0004 0183    {
                 ; 0004 0184      Tputchar0(Buffer[i++]);
0005e3 940e 0ca7 	CALL SUBOPT_0x34
0005e5 dfd9      	RCALL _Tputchar0
                 ; 0004 0185    }
0005e6 cff9      	RJMP _0x80056
                 _0x80058:
                 ; 0004 0186 
                 ; 0004 0187    return  i;
                 _0x20A0002:
0005e7 2fe1      	MOV  R30,R17
0005e8 8118      	LDD  R17,Y+0
                 _0x20A0003:
0005e9 9624      	ADIW R28,4
0005ea 9508      	RET
                 ; 0004 0188 }
                 ; .FEND
                 ;#include <stdio.h>
                 	#ifndef __SLEEP_DEFINED__
                 	#endif
                 ;#include "SpiLib.h"
                 ;
                 ;BYTE Spi_ReadByte( void  )
                 ; 0005 0005 {
                 
                 	.CSEG
                 ; 0005 0006    BYTE temp;
                 ; 0005 0007 
                 ; 0005 0008    SPDR = 0xff;
                 ;	temp -> R17
                 ; 0005 0009    while(!(SPSR&0x80));
                 ; 0005 000A    temp=SPDR;
                 ; 0005 000B 
                 ; 0005 000C    return temp;
                 ; 0005 000D }
                 ;
                 ;void Spi_WriteByte(BYTE data )
                 ; 0005 0010 {
                 ; 0005 0011    SPDR = data;
                 ;	data -> Y+0
                 ; 0005 0012    while(!(SPSR&0x80));
                 ; 0005 0013    data = SPDR;
                 ; 0005 0014 }
                 ;#include <mega128.h>
                 	#ifndef __SLEEP_DEFINED__
                 	#endif
                 ;#include <delay.h>
                 ;#include "InAdc.h"
                 ;
                 ;#define ADC_VREF_TYPE 0x00
                 ;
                 ;// Read the AD conversion result
                 ;int read_adc( BYTE adc_input )
                 ; 0006 0009 {
                 
                 	.CSEG
                 _read_adc:
                 ; .FSTART _read_adc
                 ; 0006 000A   WORD temp;
                 ; 0006 000B   int  RetVal;
                 ; 0006 000C 
                 ; 0006 000D   ADMUX = adc_input | (ADC_VREF_TYPE & 0xff);
0005eb 93aa      	ST   -Y,R26
0005ec 940e 0fbe 	CALL __SAVELOCR4
                 ;	adc_input -> Y+4
                 ;	temp -> R16,R17
                 ;	RetVal -> R18,R19
0005ee 81ec      	LDD  R30,Y+4
0005ef b9e7      	OUT  0x7,R30
                 ; 0006 000E   // Delay needed for the stabilization of the ADC input voltage
                 ; 0006 000F   delay_us(10);
                +
0005f0 e385     +LDI R24 , LOW ( 53 )
                +__DELAY_USB_LOOP :
0005f1 958a     +DEC R24
0005f2 f7f1     +BRNE __DELAY_USB_LOOP
                 	__DELAY_USB 53
                 ; 0006 0010   // Start the AD conversion
                 ; 0006 0011   ADCSRA|=0x40;
0005f3 9a36      	SBI  0x6,6
                 ; 0006 0012   // Wait for the AD conversion to complete
                 ; 0006 0013   while ((ADCSRA & 0x10)==0);
                 _0xC0003:
0005f4 9b34      	SBIS 0x6,4
0005f5 cffe      	RJMP _0xC0003
                 ; 0006 0014   ADCSRA |=0x10;
0005f6 9a34      	SBI  0x6,4
                 ; 0006 0015 
                 ; 0006 0016  // return ADCW;
                 ; 0006 0017   temp  = ADCW;
                +
0005f7 b104     +IN R16 , 4
0005f8 b115     +IN R17 , 4 + 1
                 	__INWR 16,17,4
                 ; 0006 0018 
                 ; 0006 0019   RetVal =  (int)(5.0f*10.0f*(float)temp/1024.0f);
0005f9 01f8      	MOVW R30,R16
0005fa 2766      	CLR  R22
0005fb 2777      	CLR  R23
0005fc 940e 0e0a 	CALL __CDF1
                +
0005fe e0a0     +LDI R26 , LOW ( 0x42480000 )
0005ff e0b0     +LDI R27 , HIGH ( 0x42480000 )
000600 e488     +LDI R24 , BYTE3 ( 0x42480000 )
000601 e492     +LDI R25 , BYTE4 ( 0x42480000 )
                 	__GETD2N 0x42480000
000602 940e 0e94 	CALL __MULF12
000604 01df      	MOVW R26,R30
000605 01cb      	MOVW R24,R22
                +
000606 e0e0     +LDI R30 , LOW ( 0x44800000 )
000607 e0f0     +LDI R31 , HIGH ( 0x44800000 )
000608 e860     +LDI R22 , BYTE3 ( 0x44800000 )
000609 e474     +LDI R23 , BYTE4 ( 0x44800000 )
                 	__GETD1N 0x44800000
00060a 940e 0ee2 	CALL __DIVF21
00060c 940e 0dd3 	CALL __CFD1
00060e 019f      	MOVW R18,R30
                 ; 0006 001A 
                 ; 0006 001B   return RetVal;
00060f 940e 0fc5 	CALL __LOADLOCR4
000611 940c 0ae5 	JMP  _0x20A0001
                 ; 0006 001C }
                 ; .FEND
                 ;#include <mega128.h>
                 	#ifndef __SLEEP_DEFINED__
                 	#endif
                 ;#include <stdio.h>
                 ;#include <delay.h>
                 ;#include <math.h>
                 ;#include <string.h>
                 ;
                 ;#include "DAC7611/DAC7611.h"
                 ;#include "Uart/uart.h"
                 ;#include "IPC/IPClib.h"
                 ;#include "InAdc/InAdc.h"
                 ;#include "InEEprom/InEepromLib.h"
                 ;
                 ;const float DacArray[12] = {10.0f, 20.0f, 30.0f, 40.20f, 13.20f, 16.94f, 21.28f, 25.82f, 30.57f, 35.4f, 40.0f, 55.9f};
                 ;
                 ;// Variables
                 ;int  gVoltage;
                 ;BYTE gMode;
                 ;BOOL gRunFlag;
                 ;int  gDepth;
                 ;int  gSpeed;
                 ;int  gElCount=0;
                 ;BYTE gFlag;
                 ;int  gDose;
                 ;BYTE gError;
                 ;int  gAdcLoc=0;
                 ;int  gElLoc=0;
                 ;int  gMotorPos1=0;
                 ;int  gMotorPos2=0;
                 ;
                 ;
                 ;WORD gTime1ms;
                 ;WORD goldTime1ms;
                 ;BYTE WaitEvent( void );
                 ;BYTE gElMatrix[4];
                 ;int  gCurState=0;
                 ;int  gCalValue0,gCalValue1;
                 ;int  gDutyOff=0;
                 ;BOOL gElCompletFlag = FALSE;
                 ;
                 ;//add yjw 2021.04.03
                 ;BYTE gShotCnt =0;
                 ;int gShotWaitTime =0;
                 ;int gShotGapWaitTime =0;
                 ;
                 ;int gSetVolagteInitTime = 5000;
                 
                 	.DSEG
                 ;
                 ;
                 ;int  gShift=0;
                 ;//int  gReadVol;
                 ;int  gVolAdjCount=0;
                 ;int  gVolChkCount = 0;
                 ;//int  gInitCount=0;
                 ;BYTE gCurMode;
                 ;BOOL gGenMode=FALSE;
                 ;BOOL gReadyActionFlag=FALSE;
                 ;
                 ;void InitSettingData(void);
                 ;void LoadInEeprom( void);
                 ;void InitData(void);
                 ;
                 ;//const int LowVolAdj[4] = {0, 8, 7, 0};
                 ;
                 ;// Timer 0 overflow interrupt service routine
                 ;interrupt [TIM0_OVF] void timer0_ovf_isr(void)
                 ; 0007 0041 {
                 
                 	.CSEG
                 _timer0_ovf_isr:
                 ; .FSTART _timer0_ovf_isr
000613 93aa      	ST   -Y,R26
000614 93ba      	ST   -Y,R27
000615 93ea      	ST   -Y,R30
000616 93fa      	ST   -Y,R31
000617 b7ef      	IN   R30,SREG
000618 93ea      	ST   -Y,R30
                 ; 0007 0042     // Reinitialize Timer 0 value
                 ; 0007 0043     TCNT0 = 0x06;   //1ms
000619 e0e6      	LDI  R30,LOW(6)
00061a bfe2      	OUT  0x32,R30
                 ; 0007 0044     // Place your code here
                 ; 0007 0045     gTime1ms++;
00061b e0a6      	LDI  R26,LOW(_gTime1ms)
00061c e0b5      	LDI  R27,HIGH(_gTime1ms)
00061d 940e 0cb0 	CALL SUBOPT_0x35
                 ; 0007 0046 }
00061f 91e9      	LD   R30,Y+
000620 bfef      	OUT  SREG,R30
000621 91f9      	LD   R31,Y+
000622 91e9      	LD   R30,Y+
000623 91b9      	LD   R27,Y+
000624 91a9      	LD   R26,Y+
000625 9518      	RETI
                 ; .FEND
                 ;
                 ;void PulseGenerator( void )
                 ; 0007 0049 {
                 _PulseGenerator:
                 ; .FSTART _PulseGenerator
                 ; 0007 004A     int i=0;
                 ; 0007 004B     // Reinitialize Timer1 value
                 ; 0007 004C 
                 ; 0007 004D     #if 0
                 ; 0007 004E     TCNT1H=0xB1E0 >> 8;           //10ms
                 ; 0007 004F     TCNT1L=0xB1E0 & 0xff;
                 ; 0007 0050     #else
                 ; 0007 0051     TCNT1H=0xE0;    //0.5ms
000626 940e 0ae7 	CALL SUBOPT_0x0
                 ;	i -> R16,R17
000628 940e 0cb6 	CALL SUBOPT_0x36
                 ; 0007 0052     TCNT1L=0xC0;
                 ; 0007 0053     #endif
                 ; 0007 0054 
                 ; 0007 0055     // Place your code here
                 ; 0007 0056     if( gRunFlag==TRUE && gElCompletFlag == FALSE )
00062a 91a0 050b 	LDS  R26,_gRunFlag
00062c 30a1      	CPI  R26,LOW(0x1)
00062d f421      	BRNE _0xE0005
00062e 91a0 0518 	LDS  R26,_gElCompletFlag
000630 30a0      	CPI  R26,LOW(0x0)
000631 f009      	BREQ _0xE0006
                 _0xE0005:
000632 c108      	RJMP _0xE0004
                 _0xE0006:
                 ; 0007 0057     {
                 ; 0007 0058 
                 ; 0007 0059         if( gGenMode==FALSE )
000633 91e0 078a 	LDS  R30,_gGenMode
000635 30e0      	CPI  R30,0
000636 f009      	BREQ PC+2
000637 c077      	RJMP _0xE0007
                 ; 0007 005A         {
                 ; 0007 005B             if(gShotWaitTime<=800)  //0.5ms * 800 = 400ms
000638 91a0 0780 	LDS  R26,_gShotWaitTime
00063a 91b0 0781 	LDS  R27,_gShotWaitTime+1
00063c 32a1      	CPI  R26,LOW(0x321)
00063d e0e3      	LDI  R30,HIGH(0x321)
00063e 07be      	CPC  R27,R30
00063f f42c      	BRGE _0xE0008
                 ; 0007 005C             {
                 ; 0007 005D                  gShotWaitTime++;
000640 e8a0      	LDI  R26,LOW(_gShotWaitTime)
000641 e0b7      	LDI  R27,HIGH(_gShotWaitTime)
000642 940e 0cb0 	CALL SUBOPT_0x35
                 ; 0007 005E             }
                 ; 0007 005F             else
000644 c069      	RJMP _0xE0009
                 _0xE0008:
                 ; 0007 0060             {
                 ; 0007 0061                 if( gCurState == 0 )
000645 91e0 0777 	LDS  R30,_gCurState
000647 91f0 0778 	LDS  R31,_gCurState+1
000649 9730      	SBIW R30,0
00064a f4e1      	BRNE _0xE000A
                 ; 0007 0062                 {
                 ; 0007 0063                     gCalValue0 = gElMatrix[gElLoc]<<4;
00064b 940e 0cbb 	CALL SUBOPT_0x37
00064d 940e 0cc2 	CALL SUBOPT_0x38
                 ; 0007 0064                     gCalValue1 = 0;
                 ; 0007 0065 
                 ; 0007 0066                     for( i=0; i< 4; i++)
                 _0xE000C:
                +
00064f 3004     +CPI R16 , LOW ( 4 )
000650 e0e0     +LDI R30 , HIGH ( 4 )
000651 071e     +CPC R17 , R30
                 	__CPWRN 16,17,4
000652 f444      	BRGE _0xE000D
                 ; 0007 0067                     {
                 ; 0007 0068                         if( gElMatrix[gElLoc]&(0x08>>i))
000653 940e 0cbb 	CALL SUBOPT_0x37
000655 940e 0cd2 	CALL SUBOPT_0x39
000657 f419      	BRNE _0xE000D
                 ; 0007 0069                         break;
                 ; 0007 006A                     }
                +
000658 5f0f     +SUBI R16 , LOW ( - 1 )
000659 4f1f     +SBCI R17 , HIGH ( - 1 )
                 	__ADDWRN 16,17,1
00065a cff4      	RJMP _0xE000C
                 _0xE000D:
                 ; 0007 006B                     gShift = i;
00065b 940e 0cd9 	CALL SUBOPT_0x3A
                 ; 0007 006C 
                 ; 0007 006D                     gShift++;
                 ; 0007 006E                     if( gShift > 3 ) gShift = 0;
00065d 940e 0ce0 	CALL SUBOPT_0x3B
00065f f014      	BRLT _0xE000F
000660 940e 0ce6 	CALL SUBOPT_0x3C
                 ; 0007 006F 
                 ; 0007 0070                     PORTC = gCalValue0|(0x08>>gShift);
                 _0xE000F:
000662 940e 0cec 	CALL SUBOPT_0x3D
                 ; 0007 0071                     gCurState = 1;
000664 940e 0cf6 	CALL SUBOPT_0x3E
                 ; 0007 0072                 }
                 ; 0007 0073                 else if( gCurState == 1 )
000666 c047      	RJMP _0xE0010
                 _0xE000A:
000667 940e 0cfd 	CALL SUBOPT_0x3F
000669 9711      	SBIW R26,1
00066a f419      	BRNE _0xE0011
                 ; 0007 0074                 {
                 ; 0007 0075                     PORTC = gCalValue1;
00066b 940e 0d02 	CALL SUBOPT_0x40
                 ; 0007 0076                     gCurState = 2;
                 ; 0007 0077                 }
                 ; 0007 0078                 else if( gCurState == 2 )
00066d c040      	RJMP _0xE0012
                 _0xE0011:
00066e 940e 0cfd 	CALL SUBOPT_0x3F
000670 9712      	SBIW R26,2
000671 f461      	BRNE _0xE0013
                 ; 0007 0079                 {
                 ; 0007 007A                     gShift++;
000672 940e 0d0c 	CALL SUBOPT_0x41
                 ; 0007 007B                     if( gShift > 3 ) gShift = 0;
000674 940e 0ce0 	CALL SUBOPT_0x3B
000676 f014      	BRLT _0xE0014
000677 940e 0ce6 	CALL SUBOPT_0x3C
                 ; 0007 007C                     PORTC = gCalValue0|(0x08>>gShift);
                 _0xE0014:
000679 940e 0cec 	CALL SUBOPT_0x3D
                 ; 0007 007D                     gCurState = 3;
00067b 940e 0d0f 	CALL SUBOPT_0x42
                 ; 0007 007E                 }
                 ; 0007 007F                 else if( gCurState == 3 )
00067d c030      	RJMP _0xE0015
                 _0xE0013:
00067e 940e 0cfd 	CALL SUBOPT_0x3F
000680 9713      	SBIW R26,3
000681 f419      	BRNE _0xE0016
                 ; 0007 0080                 {
                 ; 0007 0081                     PORTC = gCalValue1;
000682 940e 0d16 	CALL SUBOPT_0x43
                 ; 0007 0082                     gCurState = 4;
                 ; 0007 0083                 }
                 ; 0007 0084                 else if( gCurState == 4 )
000684 c029      	RJMP _0xE0017
                 _0xE0016:
000685 940e 0cfd 	CALL SUBOPT_0x3F
000687 9714      	SBIW R26,4
000688 f461      	BRNE _0xE0018
                 ; 0007 0085                 {
                 ; 0007 0086                     gShift++;
000689 940e 0d0c 	CALL SUBOPT_0x41
                 ; 0007 0087                     if( gShift > 3 ) gShift = 0;
00068b 940e 0ce0 	CALL SUBOPT_0x3B
00068d f014      	BRLT _0xE0019
00068e 940e 0ce6 	CALL SUBOPT_0x3C
                 ; 0007 0088                     PORTC = gCalValue0|(0x08>>gShift);
                 _0xE0019:
000690 940e 0cec 	CALL SUBOPT_0x3D
                 ; 0007 0089                     gCurState = 5;
000692 940e 0d20 	CALL SUBOPT_0x44
                 ; 0007 008A                 }
                 ; 0007 008B                 else if( gCurState == 5 )
000694 c019      	RJMP _0xE001A
                 _0xE0018:
000695 940e 0cfd 	CALL SUBOPT_0x3F
000697 9715      	SBIW R26,5
000698 f4a9      	BRNE _0xE001B
                 ; 0007 008C                 {
                 ; 0007 008D                     PORTC = gCalValue1;
000699 940e 0d27 	CALL SUBOPT_0x45
                 ; 0007 008E                     gElLoc++;
                 ; 0007 008F                     if( gElLoc > 3 )
00069b 91a0 0775 	LDS  R26,_gElLoc
00069d 91b0 0776 	LDS  R27,_gElLoc+1
00069f 9714      	SBIW R26,4
0006a0 f014      	BRLT _0xE001C
                 ; 0007 0090                     {
                 ; 0007 0091                         gShotCnt++;
0006a1 940e 0d2d 	CALL SUBOPT_0x46
                 ; 0007 0092                         gElLoc = 0;
                 ; 0007 0093                     }
                 ; 0007 0094                     gCurState = 0;
                 _0xE001C:
0006a3 e0e0      	LDI  R30,LOW(0)
0006a4 93e0 0777 	STS  _gCurState,R30
0006a6 93e0 0778 	STS  _gCurState+1,R30
                 ; 0007 0095 
                 ; 0007 0096                     if(gShotCnt >=1)      //1CYCLE
0006a8 91a0 077f 	LDS  R26,_gShotCnt
0006aa 30a1      	CPI  R26,LOW(0x1)
0006ab f010      	BRLO _0xE001D
                 ; 0007 0097                     {
                 ; 0007 0098                         gShotCnt = 0;
0006ac 940e 0d38 	CALL SUBOPT_0x47
                 ; 0007 0099                         gShotWaitTime = 0;
                 ; 0007 009A                         gElCompletFlag = TRUE;
                 ; 0007 009B                     }
                 ; 0007 009C                 }
                 _0xE001D:
                 ; 0007 009D             }
                 _0xE001B:
                 _0xE001A:
                 _0xE0017:
                 _0xE0015:
                 _0xE0012:
                 _0xE0010:
                 _0xE0009:
                 ; 0007 009E         }
                 ; 0007 009F         else
0006ae c08c      	RJMP _0xE001E
                 _0xE0007:
                 ; 0007 00A0         {
                 ; 0007 00A1 
                 ; 0007 00A2           if(gShotWaitTime<=400)  //0.5ms * 400 = 200ms
0006af 91a0 0780 	LDS  R26,_gShotWaitTime
0006b1 91b0 0781 	LDS  R27,_gShotWaitTime+1
0006b3 39a1      	CPI  R26,LOW(0x191)
0006b4 e0e1      	LDI  R30,HIGH(0x191)
0006b5 07be      	CPC  R27,R30
0006b6 f454      	BRGE _0xE001F
                 ; 0007 00A3             {
                 ; 0007 00A4                  gShotWaitTime++;
0006b7 e8a0      	LDI  R26,LOW(_gShotWaitTime)
0006b8 e0b7      	LDI  R27,HIGH(_gShotWaitTime)
0006b9 940e 0cb0 	CALL SUBOPT_0x35
                 ; 0007 00A5                  gShotGapWaitTime = 0;
0006bb e0e0      	LDI  R30,LOW(0)
0006bc 93e0 0782 	STS  _gShotGapWaitTime,R30
0006be 93e0 0783 	STS  _gShotGapWaitTime+1,R30
                 ; 0007 00A6             }
                 ; 0007 00A7             else
0006c0 c07a      	RJMP _0xE0020
                 _0xE001F:
                 ; 0007 00A8             {
                 ; 0007 00A9                 if(gShotGapWaitTime)
0006c1 91e0 0782 	LDS  R30,_gShotGapWaitTime
0006c3 91f0 0783 	LDS  R31,_gShotGapWaitTime+1
0006c5 9730      	SBIW R30,0
0006c6 f029      	BREQ _0xE0021
                 ; 0007 00AA                 {
                 ; 0007 00AB                     gShotGapWaitTime --;
0006c7 e8a2      	LDI  R26,LOW(_gShotGapWaitTime)
0006c8 e0b7      	LDI  R27,HIGH(_gShotGapWaitTime)
0006c9 940e 0d43 	CALL SUBOPT_0x48
                 ; 0007 00AC                 }
                 ; 0007 00AD                 else
0006cb c06f      	RJMP _0xE0022
                 _0xE0021:
                 ; 0007 00AE                 {
                 ; 0007 00AF                    if( gCurState == 0 )
0006cc 91e0 0777 	LDS  R30,_gCurState
0006ce 91f0 0778 	LDS  R31,_gCurState+1
0006d0 9730      	SBIW R30,0
0006d1 f4e1      	BRNE _0xE0023
                 ; 0007 00B0                     {
                 ; 0007 00B1                         gCalValue0 = gElMatrix[gElLoc]<<4;
0006d2 940e 0cbb 	CALL SUBOPT_0x37
0006d4 940e 0cc2 	CALL SUBOPT_0x38
                 ; 0007 00B2                         gCalValue1 = 0;
                 ; 0007 00B3 
                 ; 0007 00B4                         for( i=0; i< 4; i++)
                 _0xE0025:
                +
0006d6 3004     +CPI R16 , LOW ( 4 )
0006d7 e0e0     +LDI R30 , HIGH ( 4 )
0006d8 071e     +CPC R17 , R30
                 	__CPWRN 16,17,4
0006d9 f444      	BRGE _0xE0026
                 ; 0007 00B5                         {
                 ; 0007 00B6                             if( gElMatrix[gElLoc]&(0x08>>i))
0006da 940e 0cbb 	CALL SUBOPT_0x37
0006dc 940e 0cd2 	CALL SUBOPT_0x39
0006de f419      	BRNE _0xE0026
                 ; 0007 00B7                             break;
                 ; 0007 00B8                         }
                +
0006df 5f0f     +SUBI R16 , LOW ( - 1 )
0006e0 4f1f     +SBCI R17 , HIGH ( - 1 )
                 	__ADDWRN 16,17,1
0006e1 cff4      	RJMP _0xE0025
                 _0xE0026:
                 ; 0007 00B9                         gShift = i;
0006e2 940e 0cd9 	CALL SUBOPT_0x3A
                 ; 0007 00BA 
                 ; 0007 00BB                         gShift++;
                 ; 0007 00BC                         if( gShift > 3 ) gShift = 0;
0006e4 940e 0ce0 	CALL SUBOPT_0x3B
0006e6 f014      	BRLT _0xE0028
0006e7 940e 0ce6 	CALL SUBOPT_0x3C
                 ; 0007 00BD 
                 ; 0007 00BE                         PORTC = gCalValue0|(0x08>>gShift);
                 _0xE0028:
0006e9 940e 0cec 	CALL SUBOPT_0x3D
                 ; 0007 00BF                         gCurState = 1;
0006eb 940e 0cf6 	CALL SUBOPT_0x3E
                 ; 0007 00C0                     }
                 ; 0007 00C1                     else if( gCurState == 1 )
0006ed c04d      	RJMP _0xE0029
                 _0xE0023:
0006ee 940e 0cfd 	CALL SUBOPT_0x3F
0006f0 9711      	SBIW R26,1
0006f1 f419      	BRNE _0xE002A
                 ; 0007 00C2                     {
                 ; 0007 00C3                         PORTC = gCalValue1;
0006f2 940e 0d02 	CALL SUBOPT_0x40
                 ; 0007 00C4                         gCurState = 2;
                 ; 0007 00C5                     }
                 ; 0007 00C6                     else if( gCurState == 2 )
0006f4 c046      	RJMP _0xE002B
                 _0xE002A:
0006f5 940e 0cfd 	CALL SUBOPT_0x3F
0006f7 9712      	SBIW R26,2
0006f8 f461      	BRNE _0xE002C
                 ; 0007 00C7                     {
                 ; 0007 00C8                         gShift++;
0006f9 940e 0d0c 	CALL SUBOPT_0x41
                 ; 0007 00C9                         if( gShift > 3 ) gShift = 0;
0006fb 940e 0ce0 	CALL SUBOPT_0x3B
0006fd f014      	BRLT _0xE002D
0006fe 940e 0ce6 	CALL SUBOPT_0x3C
                 ; 0007 00CA                         PORTC = gCalValue0|(0x08>>gShift);
                 _0xE002D:
000700 940e 0cec 	CALL SUBOPT_0x3D
                 ; 0007 00CB                         gCurState = 3;
000702 940e 0d0f 	CALL SUBOPT_0x42
                 ; 0007 00CC                     }
                 ; 0007 00CD                     else if( gCurState == 3 )
000704 c036      	RJMP _0xE002E
                 _0xE002C:
000705 940e 0cfd 	CALL SUBOPT_0x3F
000707 9713      	SBIW R26,3
000708 f419      	BRNE _0xE002F
                 ; 0007 00CE                     {
                 ; 0007 00CF                         PORTC = gCalValue1;
000709 940e 0d16 	CALL SUBOPT_0x43
                 ; 0007 00D0                         gCurState = 4;
                 ; 0007 00D1                     }
                 ; 0007 00D2                     else if( gCurState == 4 )
00070b c02f      	RJMP _0xE0030
                 _0xE002F:
00070c 940e 0cfd 	CALL SUBOPT_0x3F
00070e 9714      	SBIW R26,4
00070f f461      	BRNE _0xE0031
                 ; 0007 00D3                     {
                 ; 0007 00D4                         gShift++;
000710 940e 0d0c 	CALL SUBOPT_0x41
                 ; 0007 00D5                         if( gShift > 3 ) gShift = 0;
000712 940e 0ce0 	CALL SUBOPT_0x3B
000714 f014      	BRLT _0xE0032
000715 940e 0ce6 	CALL SUBOPT_0x3C
                 ; 0007 00D6                         PORTC = gCalValue0|(0x08>>gShift);
                 _0xE0032:
000717 940e 0cec 	CALL SUBOPT_0x3D
                 ; 0007 00D7                         gCurState = 5;
000719 940e 0d20 	CALL SUBOPT_0x44
                 ; 0007 00D8                     }
                 ; 0007 00D9                     else if( gCurState == 5 )
00071b c01f      	RJMP _0xE0033
                 _0xE0031:
00071c 940e 0cfd 	CALL SUBOPT_0x3F
00071e 9715      	SBIW R26,5
00071f f4d9      	BRNE _0xE0034
                 ; 0007 00DA                     {
                 ; 0007 00DB                         PORTC = gCalValue1;
000720 940e 0d27 	CALL SUBOPT_0x45
                 ; 0007 00DC                         gElLoc++;
                 ; 0007 00DD                         gCurState = 0;
000722 e0e0      	LDI  R30,LOW(0)
000723 93e0 0777 	STS  _gCurState,R30
000725 93e0 0778 	STS  _gCurState+1,R30
                 ; 0007 00DE                         gShotGapWaitTime = 200;  //0.5ms * 200 = 100ms
000727 ece8      	LDI  R30,LOW(200)
000728 e0f0      	LDI  R31,HIGH(200)
000729 93e0 0782 	STS  _gShotGapWaitTime,R30
00072b 93f0 0783 	STS  _gShotGapWaitTime+1,R31
                 ; 0007 00DF                         if( gElLoc > 3 )
00072d 91a0 0775 	LDS  R26,_gElLoc
00072f 91b0 0776 	LDS  R27,_gElLoc+1
000731 9714      	SBIW R26,4
000732 f014      	BRLT _0xE0035
                 ; 0007 00E0                         {
                 ; 0007 00E1                             gShotCnt++;
000733 940e 0d2d 	CALL SUBOPT_0x46
                 ; 0007 00E2                             gElLoc = 0;
                 ; 0007 00E3                         }
                 ; 0007 00E4 
                 ; 0007 00E5                         if(gShotCnt >=1)      //1CYCLE
                 _0xE0035:
000735 91a0 077f 	LDS  R26,_gShotCnt
000737 30a1      	CPI  R26,LOW(0x1)
000738 f010      	BRLO _0xE0036
                 ; 0007 00E6                         {
                 ; 0007 00E7                             gShotCnt = 0;
000739 940e 0d38 	CALL SUBOPT_0x47
                 ; 0007 00E8                             gShotWaitTime = 0;
                 ; 0007 00E9                             gElCompletFlag = TRUE;
                 ; 0007 00EA                         }
                 ; 0007 00EB                     }
                 _0xE0036:
                 ; 0007 00EC                 }
                 _0xE0034:
                 _0xE0033:
                 _0xE0030:
                 _0xE002E:
                 _0xE002B:
                 _0xE0029:
                 _0xE0022:
                 ; 0007 00ED             }
                 _0xE0020:
                 ; 0007 00EE         }
                 _0xE001E:
                 ; 0007 00EF      }
                 ; 0007 00F0 }
                 _0xE0004:
00073b 9109      	LD   R16,Y+
00073c 9119      	LD   R17,Y+
00073d 9508      	RET
                 ; .FEND
                 ;
                 ;void PulseGenerator6( void )
                 ; 0007 00F3 {
                 ; 0007 00F4      // Reinitialize Timer1 value
                 ; 0007 00F5     TCNT1H=0xE600 >> 8;          //     0.4ms
                 ; 0007 00F6     TCNT1L=0xE600 & 0xff;
                 ; 0007 00F7 
                 ; 0007 00F8     // Place your code here
                 ; 0007 00F9     if( gRunFlag==TRUE && gElCompletFlag == FALSE )
                 ; 0007 00FA     {
                 ; 0007 00FB        if( gCurState == 0 )
                 ; 0007 00FC        {
                 ; 0007 00FD           gCalValue0 = gElMatrix[gElLoc]<<4 |(~gElMatrix[gElLoc])&0x0f; //((~gElMatrix[gElLoc]<<4)&0xf0)| gElMatrix[gElL ...
                 ; 0007 00FE           gCalValue1 = gCalValue0&0x0f; // (~gElMatrix[gElLoc])&0x0f;
                 ; 0007 00FF 
                 ; 0007 0100           PORTC = gCalValue0;
                 ; 0007 0101           gDutyOff = 0;
                 ; 0007 0102           gCurState = 1;
                 ; 0007 0103        }
                 ; 0007 0104        else if( gCurState == 1 )
                 ; 0007 0105        {
                 ; 0007 0106           gDutyOff++;
                 ; 0007 0107           if( gDutyOff >14 )gCurState = 2;
                 ; 0007 0108        }
                 ; 0007 0109        else if( gCurState == 2 )
                 ; 0007 010A        {
                 ; 0007 010B           gDutyOff = 0;
                 ; 0007 010C           PORTC = gCalValue1;
                 ; 0007 010D           gCurState = 3;
                 ; 0007 010E        }
                 ; 0007 010F        else if( gCurState == 3 )
                 ; 0007 0110        {
                 ; 0007 0111           PORTC = gCalValue0;
                 ; 0007 0112           gDutyOff++;
                 ; 0007 0113           if( gDutyOff >15) gCurState = 4;
                 ; 0007 0114        }
                 ; 0007 0115        else if( gCurState == 4 )
                 ; 0007 0116        {
                 ; 0007 0117           gDutyOff = 0;
                 ; 0007 0118           PORTC = gCalValue1;
                 ; 0007 0119           gCurState = 5;
                 ; 0007 011A        }
                 ; 0007 011B        else if( gCurState == 5 )
                 ; 0007 011C        {
                 ; 0007 011D           PORTC = gCalValue0;
                 ; 0007 011E           gDutyOff++;
                 ; 0007 011F           if( gDutyOff >15) gCurState = 6;
                 ; 0007 0120        }
                 ; 0007 0121        else if( gCurState == 6 )
                 ; 0007 0122        {
                 ; 0007 0123           gDutyOff = 0;
                 ; 0007 0124           PORTC = gCalValue1;
                 ; 0007 0125           gCurState = 7;
                 ; 0007 0126        }
                 ; 0007 0127        else if( gCurState == 7 )
                 ; 0007 0128        {
                 ; 0007 0129           PORTC = gCalValue0;
                 ; 0007 012A           gDutyOff++;
                 ; 0007 012B           if( gDutyOff >15) gCurState = 8;
                 ; 0007 012C        }
                 ; 0007 012D        else if( gCurState == 8 )
                 ; 0007 012E        {
                 ; 0007 012F           gDutyOff = 0;
                 ; 0007 0130           PORTC = gCalValue1;
                 ; 0007 0131           gCurState = 9;
                 ; 0007 0132        }
                 ; 0007 0133        else if( gCurState == 9 )
                 ; 0007 0134        {
                 ; 0007 0135           PORTC = gCalValue0;
                 ; 0007 0136           gDutyOff++;
                 ; 0007 0137           if( gDutyOff >15) gCurState = 10;
                 ; 0007 0138        }
                 ; 0007 0139        else if( gCurState == 10 )
                 ; 0007 013A        {
                 ; 0007 013B           gDutyOff = 0;
                 ; 0007 013C           PORTC = gCalValue1;
                 ; 0007 013D           gCurState = 11;
                 ; 0007 013E        }
                 ; 0007 013F        else if( gCurState == 11 )
                 ; 0007 0140        {
                 ; 0007 0141           gDutyOff++;
                 ; 0007 0142           if( gDutyOff > 363)     //150ms
                 ; 0007 0143           {
                 ; 0007 0144              gCurState = 0;
                 ; 0007 0145              gElLoc++;
                 ; 0007 0146              if( gElLoc > 3 )
                 ; 0007 0147              {
                 ; 0007 0148                 PORTC = 0x00;
                 ; 0007 0149                 gElLoc = 0;
                 ; 0007 014A                 gElCompletFlag = TRUE;
                 ; 0007 014B              }
                 ; 0007 014C           }
                 ; 0007 014D        }
                 ; 0007 014E    }
                 ; 0007 014F }
                 ;
                 ;interrupt [TIM1_OVF] void timer1_ovf_isr(void)
                 ; 0007 0152 {
                 _timer1_ovf_isr:
                 ; .FSTART _timer1_ovf_isr
00073e 920a      	ST   -Y,R0
00073f 921a      	ST   -Y,R1
000740 92fa      	ST   -Y,R15
000741 936a      	ST   -Y,R22
000742 937a      	ST   -Y,R23
000743 938a      	ST   -Y,R24
000744 939a      	ST   -Y,R25
000745 93aa      	ST   -Y,R26
000746 93ba      	ST   -Y,R27
000747 93ea      	ST   -Y,R30
000748 93fa      	ST   -Y,R31
000749 b7ef      	IN   R30,SREG
00074a 93ea      	ST   -Y,R30
                 ; 0007 0153     PulseGenerator();
00074b deda      	RCALL _PulseGenerator
                 ; 0007 0154 
                 ; 0007 0155     if(gSetVolagteInitTime>0)
00074c 91a0 0784 	LDS  R26,_gSetVolagteInitTime
00074e 91b0 0785 	LDS  R27,_gSetVolagteInitTime+1
000750 940e 0fb8 	CALL __CPW02
000752 f42c      	BRGE _0xE0058
                 ; 0007 0156     {
                 ; 0007 0157          gSetVolagteInitTime--;
000753 e8a4      	LDI  R26,LOW(_gSetVolagteInitTime)
000754 e0b7      	LDI  R27,HIGH(_gSetVolagteInitTime)
000755 940e 0d43 	CALL SUBOPT_0x48
                 ; 0007 0158     }
                 ; 0007 0159     else
000757 c005      	RJMP _0xE0059
                 _0xE0058:
                 ; 0007 015A     {
                 ; 0007 015B         gSetVolagteInitTime =0;
000758 e0e0      	LDI  R30,LOW(0)
000759 93e0 0784 	STS  _gSetVolagteInitTime,R30
00075b 93e0 0785 	STS  _gSetVolagteInitTime+1,R30
                 ; 0007 015C     }
                 _0xE0059:
                 ; 0007 015D }
00075d 91e9      	LD   R30,Y+
00075e bfef      	OUT  SREG,R30
00075f 91f9      	LD   R31,Y+
000760 91e9      	LD   R30,Y+
000761 91b9      	LD   R27,Y+
000762 91a9      	LD   R26,Y+
000763 9199      	LD   R25,Y+
000764 9189      	LD   R24,Y+
000765 9179      	LD   R23,Y+
000766 9169      	LD   R22,Y+
000767 90f9      	LD   R15,Y+
000768 9019      	LD   R1,Y+
000769 9009      	LD   R0,Y+
00076a 9518      	RETI
                 ; .FEND
                 ;
                 ;void PortInit( void )
                 ; 0007 0160 {
                 _PortInit:
                 ; .FSTART _PortInit
                 ; 0007 0161     // PORTA
                 ; 0007 0162     // bit 7 : N.C
                 ; 0007 0163     // bit 6 : N.C
                 ; 0007 0164     // bit 5 : EPG 2 out(LED)
                 ; 0007 0165     // bit 4 : EPG 1 out(LED)
                 ; 0007 0166     // bit 3 : DAC7611 LD  out
                 ; 0007 0167     // bit 2 : DAC7611 CS  out
                 ; 0007 0168     // bit 1 : DAC7611 CLK out
                 ; 0007 0169     // bit 0 : DAC7611 SDI out
                 ; 0007 016A     DDRA    = 0x3f;
00076b e3ef      	LDI  R30,LOW(63)
00076c bbea      	OUT  0x1A,R30
                 ; 0007 016B     PORTA   = 0x04;
00076d e0e4      	LDI  R30,LOW(4)
00076e bbeb      	OUT  0x1B,R30
                 ; 0007 016C 
                 ; 0007 016D     //PORTB
                 ; 0007 016E     // bit 7 : N.C
                 ; 0007 016F     // bit 6 : LF398 Sample Hold out
                 ; 0007 0170     // bit 5 : N.C
                 ; 0007 0171     // bit 4 : N.C
                 ; 0007 0172     // bit 3 : N.C
                 ; 0007 0173     // bit 2 : N.C
                 ; 0007 0174     // bit 1 : N.C
                 ; 0007 0175     // bit 0 : N.C
                 ; 0007 0176     DDRB    = 0x40;
00076f e4e0      	LDI  R30,LOW(64)
000770 bbe7      	OUT  0x17,R30
                 ; 0007 0177     PORTB   = 0x01;
000771 e0e1      	LDI  R30,LOW(1)
000772 bbe8      	OUT  0x18,R30
                 ; 0007 0178 
                 ; 0007 0179     //PORTC
                 ; 0007 017A     //bit 7: ELECT7
                 ; 0007 017B     //bit 6: ELECT6
                 ; 0007 017C     //bit 5: ELECT5
                 ; 0007 017D     //bit 4: ELECT4
                 ; 0007 017E     //bit 3: ELECT3
                 ; 0007 017F     //bit 2: ELECT2
                 ; 0007 0180     //bit 1: ELECT1
                 ; 0007 0181     //bit 0: ELECT0
                 ; 0007 0182     DDRC    = 0xff;
000773 efef      	LDI  R30,LOW(255)
000774 bbe4      	OUT  0x14,R30
                 ; 0007 0183     PORTC   = 0x00;
000775 e0e0      	LDI  R30,LOW(0)
000776 bbe5      	OUT  0x15,R30
                 ; 0007 0184 
                 ; 0007 0185     //PORTD
                 ; 0007 0186     //bit 7: (OUT) Voltage Read Select
                 ; 0007 0187     //bit 6: NC
                 ; 0007 0188     //bit 5: NC
                 ; 0007 0189     //bit 4: (IN)FET destruction sen
                 ; 0007 018A     //bit 3: TXD1
                 ; 0007 018B     //bit 2: RXD1
                 ; 0007 018C     //bit 1: NC
                 ; 0007 018D     //bit 0: NC
                 ; 0007 018E     DDRD    = 0x80;
000777 e8e0      	LDI  R30,LOW(128)
000778 bbe1      	OUT  0x11,R30
                 ; 0007 018F     PORTD   = 0x00;
000779 e0e0      	LDI  R30,LOW(0)
00077a bbe2      	OUT  0x12,R30
                 ; 0007 0190 
                 ; 0007 0191     DDRE    = 0x12;
00077b e1e2      	LDI  R30,LOW(18)
00077c b9e2      	OUT  0x2,R30
                 ; 0007 0192     //PORTE   = 0x54;
                 ; 0007 0193 
                 ; 0007 0194     DDRF    = 0xC0;
00077d ece0      	LDI  R30,LOW(192)
00077e 93e0 0061 	STS  97,R30
                 ; 0007 0195     PORTF   = 0x00;
000780 e0e0      	LDI  R30,LOW(0)
000781 93e0 0062 	STS  98,R30
                 ; 0007 0196 
                 ; 0007 0197     DDRG    = 0xff;
000783 efef      	LDI  R30,LOW(255)
000784 93e0 0064 	STS  100,R30
                 ; 0007 0198     PORTG   = 0x00;
000786 e0e0      	LDI  R30,LOW(0)
000787 93e0 0065 	STS  101,R30
                 ; 0007 0199 
                 ; 0007 019A     // Timer/Counter 0 initialization
                 ; 0007 019B     // Clock source: System Clock
                 ; 0007 019C     // Clock value: 250.000 kHz
                 ; 0007 019D     // Mode: Normal top=0xFF
                 ; 0007 019E     // OC0 output: Disconnected
                 ; 0007 019F     // Timer Period: 1 ms
                 ; 0007 01A0     ASSR=0;
000789 bfe0      	OUT  0x30,R30
                 ; 0007 01A1     TCCR0=0x04;
00078a e0e4      	LDI  R30,LOW(4)
00078b bfe3      	OUT  0x33,R30
                 ; 0007 01A2     TCNT0=0x06;
00078c e0e6      	LDI  R30,LOW(6)
00078d bfe2      	OUT  0x32,R30
                 ; 0007 01A3     OCR0=0x00;
00078e e0e0      	LDI  R30,LOW(0)
00078f bfe1      	OUT  0x31,R30
                 ; 0007 01A4 
                 ; 0007 01A5    // Timer/Counter 1 initialization
                 ; 0007 01A6    // Clock source: System Clock
                 ; 0007 01A7    // Clock value: 2000.000 kHz
                 ; 0007 01A8    // Mode: Normal top=0xFFFF
                 ; 0007 01A9    // OC1A output: Disconnected
                 ; 0007 01AA    // OC1B output: Disconnected
                 ; 0007 01AB    // OC1C output: Disconnected
                 ; 0007 01AC    // Noise Canceler: Off
                 ; 0007 01AD    // Input Capture on Falling Edge
                 ; 0007 01AE    // Timer Period: 10 ms
                 ; 0007 01AF    // Timer1 Overflow Interrupt: On
                 ; 0007 01B0    // Input Capture Interrupt: Off
                 ; 0007 01B1    // Compare A Match Interrupt: Off
                 ; 0007 01B2    // Compare B Match Interrupt: Off
                 ; 0007 01B3    // Compare C Match Interrupt: Off
                 ; 0007 01B4    /*
                 ; 0007 01B5    TCCR1A=0x00;
                 ; 0007 01B6    TCCR1B=0x02;
                 ; 0007 01B7    TCNT1H=0xB1;
                 ; 0007 01B8    TCNT1L=0xE0;
                 ; 0007 01B9    ICR1H=0x00;
                 ; 0007 01BA    ICR1L=0x00;
                 ; 0007 01BB    OCR1AH=0x00;
                 ; 0007 01BC    OCR1AL=0x00;
                 ; 0007 01BD    OCR1BH=0x00;
                 ; 0007 01BE    OCR1BL=0x00;
                 ; 0007 01BF    OCR1CH=0x00;
                 ; 0007 01C0    */
                 ; 0007 01C1 
                 ; 0007 01C2 // Timer/Counter 1 initialization
                 ; 0007 01C3 // Clock source: System Clock
                 ; 0007 01C4 // Clock value: 16000.000 kHz
                 ; 0007 01C5 // Mode: Normal top=0xFFFF
                 ; 0007 01C6 // OC1A output: Disconnected
                 ; 0007 01C7 // OC1B output: Disconnected
                 ; 0007 01C8 // OC1C output: Disconnected
                 ; 0007 01C9 // Noise Canceler: Off
                 ; 0007 01CA // Input Capture on Falling Edge
                 ; 0007 01CB // Timer Period: 0.4 ms
                 ; 0007 01CC // Timer1 Overflow Interrupt: On
                 ; 0007 01CD // Input Capture Interrupt: Off
                 ; 0007 01CE // Compare A Match Interrupt: Off
                 ; 0007 01CF // Compare B Match Interrupt: Off
                 ; 0007 01D0 // Compare C Match Interrupt: Off
                 ; 0007 01D1 
                 ; 0007 01D2 //yjw add 2021.04.03
                 ; 0007 01D3 #if 0
                 ; 0007 01D4 TCCR1A=0x00;
                 ; 0007 01D5 TCCR1B= 0x01;
                 ; 0007 01D6 TCNT1H=0xE7;
                 ; 0007 01D7 TCNT1L=0x00;
                 ; 0007 01D8 #else
                 ; 0007 01D9 TCCR1A=0x00;
000790 940e 0d49 	CALL SUBOPT_0x49
                 ; 0007 01DA TCCR1B=0x01;
                 ; 0007 01DB TCNT1H=0xE0;
                 ; 0007 01DC TCNT1L=0xC0;
                 ; 0007 01DD #endif
                 ; 0007 01DE ICR1H=0x00;
000792 e0e0      	LDI  R30,LOW(0)
000793 bde7      	OUT  0x27,R30
                 ; 0007 01DF ICR1L=0x00;
000794 bde6      	OUT  0x26,R30
                 ; 0007 01E0 OCR1AH=0x00;
000795 bdeb      	OUT  0x2B,R30
                 ; 0007 01E1 OCR1AL=0x00;
000796 bdea      	OUT  0x2A,R30
                 ; 0007 01E2 OCR1BH=0x00;
000797 bde9      	OUT  0x29,R30
                 ; 0007 01E3 OCR1BL=0x00;
000798 bde8      	OUT  0x28,R30
                 ; 0007 01E4 OCR1CH=0x00;
000799 93e0 0079 	STS  121,R30
                 ; 0007 01E5 OCR1CL=0x00;
00079b 93e0 0078 	STS  120,R30
                 ; 0007 01E6 
                 ; 0007 01E7    // Timer(s)/Counter(s) Interrupt(s) initialization
                 ; 0007 01E8    TIMSK=0x05;
00079d e0e5      	LDI  R30,LOW(5)
00079e bfe7      	OUT  0x37,R30
                 ; 0007 01E9    ETIMSK=0x00;
00079f e0e0      	LDI  R30,LOW(0)
0007a0 93e0 007d 	STS  125,R30
                 ; 0007 01EA 
                 ; 0007 01EB 
                 ; 0007 01EC // USART0 initialization
                 ; 0007 01ED // Communication Parameters: 8 Data, 1 Stop, No Parity
                 ; 0007 01EE // USART0 Receiver: On
                 ; 0007 01EF // USART0 Transmitter: On
                 ; 0007 01F0 // USART0 Mode: Asynchronous
                 ; 0007 01F1 // USART0 Baud Rate: 38400 (Double Speed Mode)
                 ; 0007 01F2    UCSR0A=0x02;
0007a2 e0e2      	LDI  R30,LOW(2)
0007a3 b9eb      	OUT  0xB,R30
                 ; 0007 01F3    UCSR0B=0x98;
0007a4 e9e8      	LDI  R30,LOW(152)
0007a5 b9ea      	OUT  0xA,R30
                 ; 0007 01F4    UCSR0C=0x06;
0007a6 e0e6      	LDI  R30,LOW(6)
0007a7 93e0 0095 	STS  149,R30
                 ; 0007 01F5    UBRR0H=0x00;
0007a9 e0e0      	LDI  R30,LOW(0)
0007aa 93e0 0090 	STS  144,R30
                 ; 0007 01F6    UBRR0L=0x33;
0007ac e3e3      	LDI  R30,LOW(51)
0007ad b9e9      	OUT  0x9,R30
                 ; 0007 01F7 
                 ; 0007 01F8    // USART1 initialization
                 ; 0007 01F9    // Communication Parameters: 8 Data, 1 Stop, No Parity
                 ; 0007 01FA    // USART1 Receiver: On
                 ; 0007 01FB    // USART1 Transmitter: On
                 ; 0007 01FC    // USART1 Mode: Asynchronous
                 ; 0007 01FD    // USART1 Baud Rate: 57600 (Double Speed Mode)
                 ; 0007 01FE    UCSR1A=0x02;
0007ae e0e2      	LDI  R30,LOW(2)
0007af 93e0 009b 	STS  155,R30
                 ; 0007 01FF    UCSR1B=0x98;
0007b1 e9e8      	LDI  R30,LOW(152)
0007b2 93e0 009a 	STS  154,R30
                 ; 0007 0200    UCSR1C=0x06;
0007b4 e0e6      	LDI  R30,LOW(6)
0007b5 93e0 009d 	STS  157,R30
                 ; 0007 0201    UBRR1H=0x00;
0007b7 e0e0      	LDI  R30,LOW(0)
0007b8 93e0 0098 	STS  152,R30
                 ; 0007 0202    UBRR1L=0x22;
0007ba e2e2      	LDI  R30,LOW(34)
0007bb 93e0 0099 	STS  153,R30
                 ; 0007 0203 
                 ; 0007 0204    // ADC initialization
                 ; 0007 0205    // ADC Clock frequency: 1000.000 kHz
                 ; 0007 0206    // ADC Voltage Reference: AREF pin
                 ; 0007 0207    ADMUX  = 0x00 & 0xff;
0007bd e0e0      	LDI  R30,LOW(0)
0007be b9e7      	OUT  0x7,R30
                 ; 0007 0208    ADCSRA = 0x84;
0007bf e8e4      	LDI  R30,LOW(132)
0007c0 b9e6      	OUT  0x6,R30
                 ; 0007 0209 }
0007c1 9508      	RET
                 ; .FEND
                 ;
                 ;void InitData(void)
                 ; 0007 020C {
                 _InitData:
                 ; .FSTART _InitData
                 ; 0007 020D    gCurMode = CUR_INIT;
0007c2 e0e0      	LDI  R30,LOW(0)
0007c3 93e0 051b 	STS  _gCurMode,R30
                 ; 0007 020E    gVoltage=100;
0007c5 e6e4      	LDI  R30,LOW(100)
0007c6 e0f0      	LDI  R31,HIGH(100)
0007c7 93e0 0508 	STS  _gVoltage,R30
0007c9 93f0 0509 	STS  _gVoltage+1,R31
                 ; 0007 020F    gMode=0;
0007cb e0e0      	LDI  R30,LOW(0)
0007cc 93e0 050a 	STS  _gMode,R30
                 ; 0007 0210    gRunFlag = FALSE;
0007ce 93e0 050b 	STS  _gRunFlag,R30
                 ; 0007 0211    gDepth=0;
0007d0 940e 0b3a 	CALL SUBOPT_0xD
                 ; 0007 0212    gSpeed=1;
0007d2 e0e1      	LDI  R30,LOW(1)
0007d3 e0f0      	LDI  R31,HIGH(1)
0007d4 93e0 0510 	STS  _gSpeed,R30
0007d6 93f0 0511 	STS  _gSpeed+1,R31
                 ; 0007 0213    gFlag=0;
0007d8 e0e0      	LDI  R30,LOW(0)
0007d9 93e0 0512 	STS  _gFlag,R30
                 ; 0007 0214    gError = (1<<ERROR_NOTLCD);
0007db e4e0      	LDI  R30,LOW(64)
0007dc 93e0 0513 	STS  _gError,R30
                 ; 0007 0215    gDose = 0;
0007de 940e 0b0d 	CALL SUBOPT_0x7
                 ; 0007 0216 
                 ; 0007 0217    // A B C D
                 ; 0007 0218    // - - + -
                 ; 0007 0219    // - - - +
                 ; 0007 021A    // + - - -
                 ; 0007 021B    // - + - -
                 ; 0007 021C    gElMatrix[0] = 0x02;
0007e0 940e 0d4e 	CALL SUBOPT_0x4A
                 ; 0007 021D    gElMatrix[1] = 0x01;
                 ; 0007 021E    gElMatrix[2] = 0x08;
                 ; 0007 021F    gElMatrix[3] = 0x04;
                 ; 0007 0220 }
0007e2 9508      	RET
                 ; .FEND
                 ;void InitSettingData(void)
                 ; 0007 0222 {
                 _InitSettingData:
                 ; .FSTART _InitSettingData
                 ; 0007 0223    DAC7611_WriteVoltage(gVoltage);
0007e3 940e 0b25 	CALL SUBOPT_0xA
0007e5 940e 0151 	CALL _DAC7611_WriteVoltage
                 ; 0007 0224 }
0007e7 9508      	RET
                 ; .FEND
                 ;
                 ;void SystemInit( void )
                 ; 0007 0227 {
                 _SystemInit:
                 ; .FSTART _SystemInit
                 ; 0007 0228    PortInit();
0007e8 df82      	RCALL _PortInit
                 ; 0007 0229    InitData();
0007e9 dfd8      	RCALL _InitData
                 ; 0007 022A 
                 ; 0007 022B    LoadInEeprom();
0007ea d07b      	RCALL _LoadInEeprom
                 ; 0007 022C 
                 ; 0007 022D    DAC7611_init(  );
0007eb 940e 014d 	CALL _DAC7611_init
                 ; 0007 022E 
                 ; 0007 022F    InitSettingData();
0007ed dff5      	RCALL _InitSettingData
                 ; 0007 0230 
                 ; 0007 0231    gGenMode = PINB.0?TRUE:FALSE;
0007ee 9bb0      	SBIS 0x16,0
0007ef c002      	RJMP _0xE005A
0007f0 e0e1      	LDI  R30,LOW(1)
0007f1 c001      	RJMP _0xE005B
                 _0xE005A:
0007f2 e0e0      	LDI  R30,LOW(0)
                 _0xE005B:
0007f3 93e0 078a 	STS  _gGenMode,R30
                 ; 0007 0232 
                 ; 0007 0233    HIGH_PGM1_LED;
0007f5 9adc      	SBI  0x1B,4
                 ; 0007 0234 
                 ; 0007 0235      // A B C D
                 ; 0007 0236      // - - + -
                 ; 0007 0237      // - - - +
                 ; 0007 0238      // + - - -
                 ; 0007 0239      // - + - -
                 ; 0007 023A      gElMatrix[0] = 0x02;
0007f6 940e 0d4e 	CALL SUBOPT_0x4A
                 ; 0007 023B      gElMatrix[1] = 0x01;
                 ; 0007 023C      gElMatrix[2] = 0x08;
                 ; 0007 023D      gElMatrix[3] = 0x04;
                 ; 0007 023E 
                 ; 0007 023F     //0.5ms
                 ; 0007 0240     TCCR1A=0x00;
0007f8 940e 0d49 	CALL SUBOPT_0x49
                 ; 0007 0241     TCCR1B=0x01;
                 ; 0007 0242 
                 ; 0007 0243     TCNT1H=0xE0;
                 ; 0007 0244     TCNT1L=0xC0;
                 ; 0007 0245 }
0007fa 9508      	RET
                 ; .FEND
                 ;
                 ;
                 ;BYTE WaitEvent( void )
                 ; 0007 0249 {
                 _WaitEvent:
                 ; .FSTART _WaitEvent
                 ; 0007 024A 
                 ; 0007 024B     while ( 1 )
                 _0xE005F:
                 ; 0007 024C     {
                 ; 0007 024D        if( IPC_Get_RxCount0() >=  sizeof( IPC_HEADER ) )
0007fb 940e 05b7 	CALL _IPC_Get_RxCount0
0007fd 30e7      	CPI  R30,LOW(0x7)
0007fe f020      	BRLO _0xE0062
                 ; 0007 024E        {
                 ; 0007 024F            goldTime1ms = gTime1ms;
0007ff 940e 0d5b 	CALL SUBOPT_0x4B
                 ; 0007 0250            return EVN_RCVUART0;
000801 e0e1      	LDI  R30,LOW(1)
000802 9508      	RET
                 ; 0007 0251        }
                 ; 0007 0252        else if( IPC_Get_RxCount1() >=  sizeof( IPC_HEADER ) )
                 _0xE0062:
000803 940e 0550 	CALL _IPC_Get_RxCount1
000805 30e7      	CPI  R30,LOW(0x7)
000806 f020      	BRLO _0xE0064
                 ; 0007 0253        {
                 ; 0007 0254            goldTime1ms = gTime1ms;
000807 940e 0d5b 	CALL SUBOPT_0x4B
                 ; 0007 0255            return EVN_RCVUART1;
000809 e0e2      	LDI  R30,LOW(2)
00080a 9508      	RET
                 ; 0007 0256        }
                 ; 0007 0257        //else if( (gTime1ms-goldTime1ms) > 300 ) // 50=200ms
                 ; 0007 0258        else if( (gTime1ms-goldTime1ms) > 300 ) // 50=200ms
                 _0xE0064:
00080b 91a0 0504 	LDS  R26,_goldTime1ms
00080d 91b0 0505 	LDS  R27,_goldTime1ms+1
00080f 91e0 0506 	LDS  R30,_gTime1ms
000811 91f0 0507 	LDS  R31,_gTime1ms+1
000813 1bea      	SUB  R30,R26
000814 0bfb      	SBC  R31,R27
000815 32ed      	CPI  R30,LOW(0x12D)
000816 e0a1      	LDI  R26,HIGH(0x12D)
000817 07fa      	CPC  R31,R26
000818 f020      	BRLO _0xE0066
                 ; 0007 0259        {
                 ; 0007 025A            goldTime1ms = gTime1ms;
000819 940e 0d5b 	CALL SUBOPT_0x4B
                 ; 0007 025B 
                 ; 0007 025C           return EVN_TIMEOVER;
00081b e0e3      	LDI  R30,LOW(3)
00081c 9508      	RET
                 ; 0007 025D        }
                 ; 0007 025E     }
                 _0xE0066:
00081d cfdd      	RJMP _0xE005F
                 ; 0007 025F }
                 ; .FEND
                 ;
                 ;void SaveInEeprom( void )
                 ; 0007 0262 {
                 _SaveInEeprom:
                 ; .FSTART _SaveInEeprom
                 ; 0007 0263    EEPROM_BODY mEDat;
                 ; 0007 0264 
                 ; 0007 0265    memset((void *)&mEDat,0 ,sizeof( EEPROM_BODY));
00081e 972b      	SBIW R28,11
                 ;	mEDat -> Y+0
00081f 01fe      	MOVW R30,R28
000820 93fa      	ST   -Y,R31
000821 93ea      	ST   -Y,R30
000822 e0e0      	LDI  R30,LOW(0)
000823 93ea      	ST   -Y,R30
000824 e0ab      	LDI  R26,LOW(11)
000825 e0b0      	LDI  R27,0
000826 940e 0ad7 	CALL _memset
                 ; 0007 0266 
                 ; 0007 0267    mEDat.AkFlag = 'A';
000828 e4e1      	LDI  R30,LOW(65)
000829 83e8      	ST   Y,R30
                 ; 0007 0268    mEDat.Run  = gRunFlag?1:0;
00082a 91e0 050b 	LDS  R30,_gRunFlag
00082c 30e0      	CPI  R30,0
00082d f011      	BREQ _0xE0067
00082e e0e1      	LDI  R30,LOW(1)
00082f c001      	RJMP _0xE0068
                 _0xE0067:
000830 e0e0      	LDI  R30,LOW(0)
                 _0xE0068:
000831 83ea      	STD  Y+2,R30
                 ; 0007 0269    mEDat.Dose1 = (BYTE)((gDose>>8)&0xff);
000832 91e0 050c 	LDS  R30,_gDose
000834 91f0 050d 	LDS  R31,_gDose+1
000836 940e 0f71 	CALL __ASRW8
000838 83eb      	STD  Y+3,R30
                 ; 0007 026A    mEDat.Dose2 = (BYTE)(gDose&0xff);
000839 91e0 050c 	LDS  R30,_gDose
00083b 83ec      	STD  Y+4,R30
                 ; 0007 026B    mEDat.Voltage = gVoltage ;
00083c 91e0 0508 	LDS  R30,_gVoltage
00083e 83ed      	STD  Y+5,R30
                 ; 0007 026C    mEDat.Depth = gDepth;
00083f 91e0 050e 	LDS  R30,_gDepth
000841 83ee      	STD  Y+6,R30
                 ; 0007 026D    mEDat.Speed = gSpeed;
000842 91e0 0510 	LDS  R30,_gSpeed
000844 83ef      	STD  Y+7,R30
                 ; 0007 026E    mEDat.Flag  = gFlag;
000845 91e0 0512 	LDS  R30,_gFlag
000847 87e8      	STD  Y+8,R30
                 ; 0007 026F    mEDat.Map1  = (gElMatrix[0]<<4)&0xf0 | gElMatrix[1]&0x0f;
000848 91e0 0500 	LDS  R30,_gElMatrix
00084a 95e2      	SWAP R30
00084b 7fe0      	ANDI R30,LOW(0xF0)
00084c 2fae      	MOV  R26,R30
                +
00084d 91e0 0501+LDS R30 , _gElMatrix + ( 1 )
                 	__GETB1MN _gElMatrix,1
00084f 70ef      	ANDI R30,LOW(0xF)
000850 2bea      	OR   R30,R26
000851 87e9      	STD  Y+9,R30
                 ; 0007 0270    mEDat.Map2  = (gElMatrix[2]<<4)&0xf0 | gElMatrix[3]&0x0f;
                +
000852 91e0 0502+LDS R30 , _gElMatrix + ( 2 )
                 	__GETB1MN _gElMatrix,2
000854 95e2      	SWAP R30
000855 7fe0      	ANDI R30,LOW(0xF0)
000856 2fae      	MOV  R26,R30
                +
000857 91e0 0503+LDS R30 , _gElMatrix + ( 3 )
                 	__GETB1MN _gElMatrix,3
000859 70ef      	ANDI R30,LOW(0xF)
00085a 2bea      	OR   R30,R26
00085b 87ea      	STD  Y+10,R30
                 ; 0007 0271    E2pWriteLen((BYTE*)&mEDat, E_EP_MODE, sizeof( EEPROM_BODY));
00085c 01fe      	MOVW R30,R28
00085d 93fa      	ST   -Y,R31
00085e 93ea      	ST   -Y,R30
00085f e0ea      	LDI  R30,LOW(10)
000860 93ea      	ST   -Y,R30
000861 e0ab      	LDI  R26,LOW(11)
000862 940e 012d 	CALL _E2pWriteLen
                 ; 0007 0272 }
000864 962b      	ADIW R28,11
000865 9508      	RET
                 ; .FEND
                 ;
                 ;void LoadInEeprom( void )
                 ; 0007 0275 {
                 _LoadInEeprom:
                 ; .FSTART _LoadInEeprom
                 ; 0007 0276    BYTE mData[20];
                 ; 0007 0277    LPEEPROM_BODY mEDat;
                 ; 0007 0278 
                 ; 0007 0279    memset((void *)&mData,0 ,20 );
000866 9764      	SBIW R28,20
000867 931a      	ST   -Y,R17
000868 930a      	ST   -Y,R16
                 ;	mData -> Y+2
                 ;	*mEDat -> R16,R17
000869 01fe      	MOVW R30,R28
00086a 9632      	ADIW R30,2
00086b 93fa      	ST   -Y,R31
00086c 93ea      	ST   -Y,R30
00086d e0e0      	LDI  R30,LOW(0)
00086e 93ea      	ST   -Y,R30
00086f e1a4      	LDI  R26,LOW(20)
000870 e0b0      	LDI  R27,0
000871 940e 0ad7 	CALL _memset
                 ; 0007 027A    E2pReadLen( mData, E_EP_MODE, sizeof( EEPROM_BODY));
000873 01fe      	MOVW R30,R28
000874 9632      	ADIW R30,2
000875 93fa      	ST   -Y,R31
000876 93ea      	ST   -Y,R30
000877 e0ea      	LDI  R30,LOW(10)
000878 93ea      	ST   -Y,R30
000879 e0ab      	LDI  R26,LOW(11)
00087a 940e 010d 	CALL _E2pReadLen
                 ; 0007 027B    mEDat =(LPEEPROM_BODY)mData ;
00087c 01fe      	MOVW R30,R28
00087d 9632      	ADIW R30,2
00087e 018f      	MOVW R16,R30
                 ; 0007 027C 
                 ; 0007 027D    if( mEDat->AkFlag == 'A' )
00087f 01d8      	MOVW R26,R16
000880 91ac      	LD   R26,X
000881 34a1      	CPI  R26,LOW(0x41)
000882 f009      	BREQ PC+2
000883 c073      	RJMP _0xE006A
                 ; 0007 027E    {
                 ; 0007 027F       gMode = 0; //= mEDat->Mode;
000884 e0e0      	LDI  R30,LOW(0)
000885 93e0 050a 	STS  _gMode,R30
                 ; 0007 0280       //gRunFlag = mEDat->Run?TRUE:FALSE;
                 ; 0007 0281       gDose = (int)mEDat->Dose1<<8|mEDat->Dose2;
000887 01f8      	MOVW R30,R16
000888 81e3      	LDD  R30,Z+3
000889 2ffe      	MOV  R31,R30
00088a e0e0      	LDI  R30,0
00088b 01df      	MOVW R26,R30
00088c 01f8      	MOVW R30,R16
00088d 81e4      	LDD  R30,Z+4
00088e e0f0      	LDI  R31,0
00088f 2bea      	OR   R30,R26
000890 2bfb      	OR   R31,R27
000891 940e 0b08 	CALL SUBOPT_0x6
                 ; 0007 0282       if( gDose < 0 ) gDose = 0;
000893 91a0 050d 	LDS  R26,_gDose+1
000895 23aa      	TST  R26
000896 f412      	BRPL _0xE006B
000897 940e 0b0d 	CALL SUBOPT_0x7
                 ; 0007 0283       if( gDose > 3 ) gDose = 3;
                 _0xE006B:
000899 91a0 050c 	LDS  R26,_gDose
00089b 91b0 050d 	LDS  R27,_gDose+1
00089d 9714      	SBIW R26,4
00089e f024      	BRLT _0xE006C
00089f e0e3      	LDI  R30,LOW(3)
0008a0 e0f0      	LDI  R31,HIGH(3)
0008a1 940e 0b08 	CALL SUBOPT_0x6
                 ; 0007 0284 
                 ; 0007 0285       gVoltage = mEDat->Voltage;
                 _0xE006C:
0008a3 01f8      	MOVW R30,R16
0008a4 81e5      	LDD  R30,Z+5
0008a5 940e 0b13 	CALL SUBOPT_0x8
                 ; 0007 0286       if( gVoltage < 60 ) gVoltage = 60;
0008a7 f414      	BRGE _0xE006D
0008a8 940e 0b1e 	CALL SUBOPT_0x9
                 ; 0007 0287       if( gVoltage > 120 ) gVoltage = 120;
                 _0xE006D:
0008aa 940e 0b25 	CALL SUBOPT_0xA
0008ac 37a9      	CPI  R26,LOW(0x79)
0008ad e0e0      	LDI  R30,HIGH(0x79)
0008ae 07be      	CPC  R27,R30
0008af f014      	BRLT _0xE006E
0008b0 940e 0b2a 	CALL SUBOPT_0xB
                 ; 0007 0288 
                 ; 0007 0289       gDepth = mEDat->Depth;
                 _0xE006E:
0008b2 01f8      	MOVW R30,R16
0008b3 81e6      	LDD  R30,Z+6
0008b4 940e 0b31 	CALL SUBOPT_0xC
                 ; 0007 028A       if( gDepth < 0 ) gDepth = 0;
0008b6 f412      	BRPL _0xE006F
0008b7 940e 0b3a 	CALL SUBOPT_0xD
                 ; 0007 028B       if( gDepth > 3 ) gDepth = 3;
                 _0xE006F:
0008b9 91a0 050e 	LDS  R26,_gDepth
0008bb 91b0 050f 	LDS  R27,_gDepth+1
0008bd 9714      	SBIW R26,4
0008be f014      	BRLT _0xE0070
0008bf 940e 0b40 	CALL SUBOPT_0xE
                 ; 0007 028C 
                 ; 0007 028D       gSpeed = mEDat->Speed;
                 _0xE0070:
0008c1 01f8      	MOVW R30,R16
0008c2 81e7      	LDD  R30,Z+7
0008c3 940e 0b47 	CALL SUBOPT_0xF
                 ; 0007 028E       if( gSpeed < 0 ) gSpeed = 0;
0008c5 f42a      	BRPL _0xE0071
0008c6 e0e0      	LDI  R30,LOW(0)
0008c7 93e0 0510 	STS  _gSpeed,R30
0008c9 93e0 0511 	STS  _gSpeed+1,R30
                 ; 0007 028F       if( gSpeed > 2 ) gSpeed = 2;
                 _0xE0071:
0008cb 91a0 0510 	LDS  R26,_gSpeed
0008cd 91b0 0511 	LDS  R27,_gSpeed+1
0008cf 9713      	SBIW R26,3
0008d0 f014      	BRLT _0xE0072
0008d1 940e 0b50 	CALL SUBOPT_0x10
                 ; 0007 0290 
                 ; 0007 0291       gFlag = mEDat->Flag;
                 _0xE0072:
0008d3 01f8      	MOVW R30,R16
0008d4 85e0      	LDD  R30,Z+8
0008d5 93e0 0512 	STS  _gFlag,R30
                 ; 0007 0292       gElMatrix[0] = (mEDat->Map1>>4)&0x0f;
0008d7 01f8      	MOVW R30,R16
0008d8 85e1      	LDD  R30,Z+9
0008d9 95e2      	SWAP R30
0008da 70ef      	ANDI R30,LOW(0xF)
0008db 93e0 0500 	STS  _gElMatrix,R30
                 ; 0007 0293       gElMatrix[1] = mEDat->Map1&0x0f;
0008dd 01f8      	MOVW R30,R16
0008de 85a1      	LDD  R26,Z+9
0008df e0ef      	LDI  R30,LOW(15)
0008e0 23ea      	AND  R30,R26
                +
0008e1 93e0 0501+STS _gElMatrix + ( 1 ) , R30
                 	__PUTB1MN _gElMatrix,1
                 ; 0007 0294       gElMatrix[2] = (mEDat->Map2>>4)&0x0f;
0008e3 01f8      	MOVW R30,R16
0008e4 85e2      	LDD  R30,Z+10
0008e5 95e2      	SWAP R30
0008e6 70ef      	ANDI R30,LOW(0xF)
                +
0008e7 93e0 0502+STS _gElMatrix + ( 2 ) , R30
                 	__PUTB1MN _gElMatrix,2
                 ; 0007 0295       gElMatrix[3] = mEDat->Map2&0x0f;
0008e9 01f8      	MOVW R30,R16
0008ea 85a2      	LDD  R26,Z+10
0008eb e0ef      	LDI  R30,LOW(15)
0008ec 23ea      	AND  R30,R26
                +
0008ed 93e0 0503+STS _gElMatrix + ( 3 ) , R30
                 	__PUTB1MN _gElMatrix,3
                 ; 0007 0296 
                 ; 0007 0297       if( gVoltage > 50 ) LOW_VOLRY;
0008ef 940e 0b25 	CALL SUBOPT_0xA
0008f1 97d3      	SBIW R26,51
0008f2 f014      	BRLT _0xE0073
0008f3 9897      	CBI  0x12,7
                 ; 0007 0298       else  HIGH_VOLRY;
0008f4 c001      	RJMP _0xE0076
                 _0xE0073:
0008f5 9a97      	SBI  0x12,7
                 ; 0007 0299    }
                 _0xE0076:
                 ; 0007 029A    else
0008f6 c002      	RJMP _0xE0079
                 _0xE006A:
                 ; 0007 029B    {
                 ; 0007 029C       InitData();
0008f7 deca      	RCALL _InitData
                 ; 0007 029D       SaveInEeprom();
0008f8 df25      	RCALL _SaveInEeprom
                 ; 0007 029E    }
                 _0xE0079:
                 ; 0007 029F }
0008f9 8119      	LDD  R17,Y+1
0008fa 8108      	LDD  R16,Y+0
0008fb 9666      	ADIW R28,22
0008fc 9508      	RET
                 ; .FEND
                 ;
                 ;void ADCProcessor( void )
                 ; 0007 02A2 {
                 _ADCProcessor:
                 ; .FSTART _ADCProcessor
                 ; 0007 02A3    // 0: Heat Protect
                 ; 0007 02A4    // 1: output voltage
                 ; 0007 02A5    // 2: elect current
                 ; 0007 02A6    int mIndexVol=0;
                 ; 0007 02A7    int mVol;
                 ; 0007 02A8    int mTemp;
                 ; 0007 02A9    float mCalvol;
                 ; 0007 02AA    mVol= read_adc( gAdcLoc );
0008fd 9724      	SBIW R28,4
0008fe 940e 0fbc 	CALL __SAVELOCR6
                 ;	mIndexVol -> R16,R17
                 ;	mVol -> R18,R19
                 ;	mTemp -> R20,R21
                 ;	mCalvol -> Y+6
                +
000900 e000     +LDI R16 , LOW ( 0 )
000901 e010     +LDI R17 , HIGH ( 0 )
                 	__GETWRN 16,17,0
000902 91a0 0773 	LDS  R26,_gAdcLoc
000904 dce6      	RCALL _read_adc
000905 019f      	MOVW R18,R30
                 ; 0007 02AB 
                 ; 0007 02AC    if( gAdcLoc == 0 )
000906 91e0 0773 	LDS  R30,_gAdcLoc
000908 91f0 0774 	LDS  R31,_gAdcLoc+1
00090a 9730      	SBIW R30,0
00090b f481      	BRNE _0xE007A
                 ; 0007 02AD    {
                 ; 0007 02AE       if( mVol > 25)
                +
00090c 312a     +CPI R18 , LOW ( 26 )
00090d e0e0     +LDI R30 , HIGH ( 26 )
00090e 073e     +CPC R19 , R30
                 	__CPWRN 18,19,26
00090f f034      	BRLT _0xE007B
                 ; 0007 02AF       {
                 ; 0007 02B0          gError |= (1<<ERROR_HEATSINK);  //2.5V
000910 91e0 0513 	LDS  R30,_gError
000912 61e0      	ORI  R30,0x10
000913 940e 0c76 	CALL SUBOPT_0x2E
                 ; 0007 02B1          gCurMode =  CUR_ERROR;
                 ; 0007 02B2       }
                 ; 0007 02B3       else
000915 c005      	RJMP _0xE007C
                 _0xE007B:
                 ; 0007 02B4       {
                 ; 0007 02B5          gError &= ~(1<<ERROR_HEATSINK);  //2.5V
000916 91e0 0513 	LDS  R30,_gError
000918 7eef      	ANDI R30,0xEF
000919 93e0 0513 	STS  _gError,R30
                 ; 0007 02B6       }
                 _0xE007C:
                 ; 0007 02B7    }
                 ; 0007 02B8    else if( gAdcLoc == 1 )
00091b c10a      	RJMP _0xE007D
                 _0xE007A:
00091c 940e 0d64 	CALL SUBOPT_0x4C
00091e 9711      	SBIW R26,1
00091f f009      	BREQ PC+2
000920 c0d0      	RJMP _0xE007E
                 ; 0007 02B9    {
                 ; 0007 02BA       if( gMode == MODE_READY && gFlag == FLAG_VOLADJ )
000921 91a0 050a 	LDS  R26,_gMode
000923 30a1      	CPI  R26,LOW(0x1)
000924 f421      	BRNE _0xE0080
000925 91a0 0512 	LDS  R26,_gFlag
000927 30a1      	CPI  R26,LOW(0x1)
000928 f009      	BREQ _0xE0081
                 _0xE0080:
000929 c0c1      	RJMP _0xE007F
                 _0xE0081:
                 ; 0007 02BB       {
                 ; 0007 02BC 
                 ; 0007 02BD         if( gVoltage> 50 )
00092a 940e 0b25 	CALL SUBOPT_0xA
00092c 97d3      	SBIW R26,51
00092d f40c      	BRGE PC+2
00092e c05f      	RJMP _0xE0082
                 ; 0007 02BE         {
                 ; 0007 02BF            if( gVolChkCount > 0 )
00092f 940e 0d69 	CALL SUBOPT_0x4D
000931 f42c      	BRGE _0xE0083
                 ; 0007 02C0            {
                 ; 0007 02C1               gVolChkCount--;
000932 e1ad      	LDI  R26,LOW(_gVolChkCount)
000933 e0b5      	LDI  R27,HIGH(_gVolChkCount)
000934 940e 0d43 	CALL SUBOPT_0x48
                 ; 0007 02C2            }
                 ; 0007 02C3            else   //2*600ms = 1.2sec
000936 c056      	RJMP _0xE0084
                 _0xE0083:
                 ; 0007 02C4            {
                 ; 0007 02C5               if(gVoltage < 20 ) mIndexVol = 0;
000937 940e 0b25 	CALL SUBOPT_0xA
000939 9754      	SBIW R26,20
00093a f41c      	BRGE _0xE0085
                +
00093b e000     +LDI R16 , LOW ( 0 )
00093c e010     +LDI R17 , HIGH ( 0 )
                 	__GETWRN 16,17,0
                 ; 0007 02C6               else  mIndexVol = (gVoltage-20)/10;
00093d c005      	RJMP _0xE0086
                 _0xE0085:
00093e 940e 0b25 	CALL SUBOPT_0xA
000940 940e 0af1 	CALL SUBOPT_0x2
000942 018f      	MOVW R16,R30
                 ; 0007 02C7 
                 ; 0007 02C8               mCalvol = DacArray[mIndexVol];
                 _0xE0086:
000943 940e 0d70 	CALL SUBOPT_0x4E
                 ; 0007 02C9 
                 ; 0007 02CA               //gReadVol =(int)(60.0f+(float)mVol*2.2f);
                 ; 0007 02CB 
                 ; 0007 02CC               if( (float)mVol > (mCalvol-mCalvol*0.2f) &&
                 ; 0007 02CD                   (float)mVol < (mCalvol+mCalvol*0.2f) )
000945 937f      	PUSH R23
000946 936f      	PUSH R22
000947 93ff      	PUSH R31
000948 93ef      	PUSH R30
000949 940e 0d7e 	CALL SUBOPT_0x4F
00094b 940e 0d83 	CALL SUBOPT_0x50
00094d 940e 0fab 	CALL __SWAPD12
00094f 940e 0e3d 	CALL __SUBF12
000951 91af      	POP  R26
000952 91bf      	POP  R27
000953 918f      	POP  R24
000954 919f      	POP  R25
000955 940e 0f27 	CALL __CMPF12
000957 f009      	BREQ PC+2
000958 f408      	BRCC PC+2
000959 c011      	RJMP _0xE0088
00095a 940e 0af7 	CALL SUBOPT_0x3
00095c 937f      	PUSH R23
00095d 936f      	PUSH R22
00095e 93ff      	PUSH R31
00095f 93ef      	PUSH R30
000960 940e 0d8a 	CALL SUBOPT_0x51
000962 940e 0e44 	CALL __ADDF12
000964 91af      	POP  R26
000965 91bf      	POP  R27
000966 918f      	POP  R24
000967 919f      	POP  R25
000968 940e 0f27 	CALL __CMPF12
00096a f008      	BRLO _0xE0089
                 _0xE0088:
00096b c014      	RJMP _0xE0087
                 _0xE0089:
                 ; 0007 02CE               {
                 ; 0007 02CF 
                 ; 0007 02D0                  gFlag = FLAG_READY;
00096c 940e 0d8c 	CALL SUBOPT_0x52
                 ; 0007 02D1                  if( gError & (1<<ERROR_VOL) )
00096e f059      	BREQ _0xE008A
                 ; 0007 02D2                  {
                 ; 0007 02D3                      gVolAdjCount++; //300ms
00096f 940e 0d93 	CALL SUBOPT_0x53
                 ; 0007 02D4                      if( gVolAdjCount > 3 )  //300ms*3
000971 940e 0d96 	CALL SUBOPT_0x54
000973 f02c      	BRLT _0xE008B
                 ; 0007 02D5                      {
                 ; 0007 02D6                         gVolAdjCount = 0;
000974 940e 0d9c 	CALL SUBOPT_0x55
                 ; 0007 02D7                         gError &= ~(1<<ERROR_VOL);  //2.5V
000976 7fee      	ANDI R30,0xFE
000977 93e0 0513 	STS  _gError,R30
                 ; 0007 02D8                      }
                 ; 0007 02D9                  }
                 _0xE008B:
                 ; 0007 02DA                  else
000979 c005      	RJMP _0xE008C
                 _0xE008A:
                 ; 0007 02DB                  {
                 ; 0007 02DC                     gError &= ~(1<<ERROR_VOL);  //2.5V
00097a 91e0 0513 	LDS  R30,_gError
00097c 7fee      	ANDI R30,0xFE
00097d 93e0 0513 	STS  _gError,R30
                 ; 0007 02DD                  }
                 _0xE008C:
                 ; 0007 02DE               }
                 ; 0007 02DF               else
00097f c00d      	RJMP _0xE008D
                 _0xE0087:
                 ; 0007 02E0               {
                 ; 0007 02E1                  gFlag = FLAG_VOLADJ;
000980 e0e1      	LDI  R30,LOW(1)
000981 93e0 0512 	STS  _gFlag,R30
                 ; 0007 02E2                  gVolAdjCount++; //300ms
000983 940e 0d93 	CALL SUBOPT_0x53
                 ; 0007 02E3                  if( gVolAdjCount > 3 )  //300ms*3
000985 940e 0d96 	CALL SUBOPT_0x54
000987 f02c      	BRLT _0xE008E
                 ; 0007 02E4                 {
                 ; 0007 02E5                     gVolAdjCount = 0;
000988 940e 0d9c 	CALL SUBOPT_0x55
                 ; 0007 02E6                     gError |= (1<<ERROR_VOL);
00098a 60e1      	ORI  R30,1
00098b 940e 0c76 	CALL SUBOPT_0x2E
                 ; 0007 02E7                     gCurMode =  CUR_ERROR;
                 ; 0007 02E8                 }
                 ; 0007 02E9               }
                 _0xE008E:
                 _0xE008D:
                 ; 0007 02EA            }
                 _0xE0084:
                 ; 0007 02EB          }
                 ; 0007 02EC          else
00098d c05c      	RJMP _0xE008F
                 _0xE0082:
                 ; 0007 02ED          {
                 ; 0007 02EE            if( gVolChkCount > 0 )
00098e 940e 0d69 	CALL SUBOPT_0x4D
000990 f42c      	BRGE _0xE0090
                 ; 0007 02EF            {
                 ; 0007 02F0               gVolChkCount--;
000991 e1ad      	LDI  R26,LOW(_gVolChkCount)
000992 e0b5      	LDI  R27,HIGH(_gVolChkCount)
000993 940e 0d43 	CALL SUBOPT_0x48
                 ; 0007 02F1            }
                 ; 0007 02F2            else
000995 c054      	RJMP _0xE0091
                 _0xE0090:
                 ; 0007 02F3            {
                 ; 0007 02F4               if(gVoltage < 20 ) mIndexVol = 0;
000996 940e 0b25 	CALL SUBOPT_0xA
000998 9754      	SBIW R26,20
000999 f41c      	BRGE _0xE0092
                +
00099a e000     +LDI R16 , LOW ( 0 )
00099b e010     +LDI R17 , HIGH ( 0 )
                 	__GETWRN 16,17,0
                 ; 0007 02F5               else  mIndexVol = (gVoltage-20)/10;
00099c c005      	RJMP _0xE0093
                 _0xE0092:
00099d 940e 0b25 	CALL SUBOPT_0xA
00099f 940e 0af1 	CALL SUBOPT_0x2
0009a1 018f      	MOVW R16,R30
                 ; 0007 02F6 
                 ; 0007 02F7               mCalvol = DacArray[mIndexVol];
                 _0xE0093:
0009a2 940e 0d70 	CALL SUBOPT_0x4E
                 ; 0007 02F8 
                 ; 0007 02F9              // mTemp = LowVolAdj[gVoltage/10-2];
                 ; 0007 02FA              // gReadVol =(int)(mTemp+20.0f+(float)mVol*0.68f);
                 ; 0007 02FB               if( (float)mVol > (mCalvol-mCalvol*0.2f) &&
                 ; 0007 02FC                   (float)mVol < (mCalvol+mCalvol*0.2f) )
0009a4 937f      	PUSH R23
0009a5 936f      	PUSH R22
0009a6 93ff      	PUSH R31
0009a7 93ef      	PUSH R30
0009a8 940e 0d8a 	CALL SUBOPT_0x51
0009aa 940e 0fab 	CALL __SWAPD12
0009ac 940e 0e3d 	CALL __SUBF12
0009ae 91af      	POP  R26
0009af 91bf      	POP  R27
0009b0 918f      	POP  R24
0009b1 919f      	POP  R25
0009b2 940e 0f27 	CALL __CMPF12
0009b4 f009      	BREQ PC+2
0009b5 f408      	BRCC PC+2
0009b6 c011      	RJMP _0xE0095
0009b7 940e 0af7 	CALL SUBOPT_0x3
0009b9 937f      	PUSH R23
0009ba 936f      	PUSH R22
0009bb 93ff      	PUSH R31
0009bc 93ef      	PUSH R30
0009bd 940e 0d8a 	CALL SUBOPT_0x51
0009bf 940e 0e44 	CALL __ADDF12
0009c1 91af      	POP  R26
0009c2 91bf      	POP  R27
0009c3 918f      	POP  R24
0009c4 919f      	POP  R25
0009c5 940e 0f27 	CALL __CMPF12
0009c7 f008      	BRLO _0xE0096
                 _0xE0095:
0009c8 c014      	RJMP _0xE0094
                 _0xE0096:
                 ; 0007 02FD               {
                 ; 0007 02FE                  gFlag = FLAG_READY;
0009c9 940e 0d8c 	CALL SUBOPT_0x52
                 ; 0007 02FF                  if( gError & (1<<ERROR_VOL) )
0009cb f059      	BREQ _0xE0097
                 ; 0007 0300                  {
                 ; 0007 0301                     gVolAdjCount++; //300ms
0009cc 940e 0d93 	CALL SUBOPT_0x53
                 ; 0007 0302                     if( gVolAdjCount > 3 )  //300ms*3
0009ce 940e 0d96 	CALL SUBOPT_0x54
0009d0 f02c      	BRLT _0xE0098
                 ; 0007 0303                     {
                 ; 0007 0304                       gVolAdjCount = 0;
0009d1 940e 0d9c 	CALL SUBOPT_0x55
                 ; 0007 0305                       gError &= ~(1<<ERROR_VOL);  //2.5V
0009d3 7fee      	ANDI R30,0xFE
0009d4 93e0 0513 	STS  _gError,R30
                 ; 0007 0306                     }
                 ; 0007 0307                  }
                 _0xE0098:
                 ; 0007 0308                  else
0009d6 c005      	RJMP _0xE0099
                 _0xE0097:
                 ; 0007 0309                  {
                 ; 0007 030A                    gError &= ~(1<<ERROR_VOL);  //2.5V
0009d7 91e0 0513 	LDS  R30,_gError
0009d9 7fee      	ANDI R30,0xFE
0009da 93e0 0513 	STS  _gError,R30
                 ; 0007 030B                  }
                 _0xE0099:
                 ; 0007 030C               }
                 ; 0007 030D               else
0009dc c00d      	RJMP _0xE009A
                 _0xE0094:
                 ; 0007 030E               {
                 ; 0007 030F                 gFlag = FLAG_VOLADJ;
0009dd e0e1      	LDI  R30,LOW(1)
0009de 93e0 0512 	STS  _gFlag,R30
                 ; 0007 0310                 gVolAdjCount++; //300ms
0009e0 940e 0d93 	CALL SUBOPT_0x53
                 ; 0007 0311                 if( gVolAdjCount > 3 )  //300ms*3
0009e2 940e 0d96 	CALL SUBOPT_0x54
0009e4 f02c      	BRLT _0xE009B
                 ; 0007 0312                 {
                 ; 0007 0313                    gVolAdjCount = 0;
0009e5 940e 0d9c 	CALL SUBOPT_0x55
                 ; 0007 0314                    gError |= (1<<ERROR_VOL);
0009e7 60e1      	ORI  R30,1
0009e8 940e 0c76 	CALL SUBOPT_0x2E
                 ; 0007 0315                    gCurMode =  CUR_ERROR;
                 ; 0007 0316                 }
                 ; 0007 0317               }
                 _0xE009B:
                 _0xE009A:
                 ; 0007 0318            }
                 _0xE0091:
                 ; 0007 0319          }
                 _0xE008F:
                 ; 0007 031A       }
                 ; 0007 031B       else
0009ea c005      	RJMP _0xE009C
                 _0xE007F:
                 ; 0007 031C       {
                 ; 0007 031D           gVolAdjCount = 0; //2020-09-04
0009eb e0e0      	LDI  R30,LOW(0)
0009ec 93e0 0788 	STS  _gVolAdjCount,R30
0009ee 93e0 0789 	STS  _gVolAdjCount+1,R30
                 ; 0007 031E       }
                 _0xE009C:
                 ; 0007 031F    }
                 ; 0007 0320    else if( gAdcLoc == 2 )
0009f0 c035      	RJMP _0xE009D
                 _0xE007E:
0009f1 940e 0d64 	CALL SUBOPT_0x4C
0009f3 9712      	SBIW R26,2
0009f4 f589      	BRNE _0xE009E
                 ; 0007 0321    {
                 ; 0007 0322       if( gRunFlag==TRUE && gElCompletFlag == TRUE )
0009f5 91a0 050b 	LDS  R26,_gRunFlag
0009f7 30a1      	CPI  R26,LOW(0x1)
0009f8 f421      	BRNE _0xE00A0
0009f9 91a0 0518 	LDS  R26,_gElCompletFlag
0009fb 30a1      	CPI  R26,LOW(0x1)
0009fc f009      	BREQ _0xE00A1
                 _0xE00A0:
0009fd c028      	RJMP _0xE009F
                 _0xE00A1:
                 ; 0007 0323       {
                 ; 0007 0324          gRunFlag = FALSE;
0009fe e0e0      	LDI  R30,LOW(0)
0009ff 93e0 050b 	STS  _gRunFlag,R30
                 ; 0007 0325          if( mVol > 25)
                +
000a01 312a     +CPI R18 , LOW ( 26 )
000a02 e0e0     +LDI R30 , HIGH ( 26 )
000a03 073e     +CPC R19 , R30
                 	__CPWRN 18,19,26
000a04 f0dc      	BRLT _0xE00A2
                 ; 0007 0326          {
                 ; 0007 0327             gError &= ~(1<<ERROR_ELOUT);  //2.5V
000a05 91e0 0513 	LDS  R30,_gError
000a07 7fed      	ANDI R30,0xFD
000a08 93e0 0513 	STS  _gError,R30
                 ; 0007 0328 
                 ; 0007 0329             gElCount++;
000a0a e1a9      	LDI  R26,LOW(_gElCount)
000a0b e0b5      	LDI  R27,HIGH(_gElCount)
000a0c 940e 0cb0 	CALL SUBOPT_0x35
                 ; 0007 032A             if( gElCount > 999 ) gElCount = 999;
000a0e 91a0 0519 	LDS  R26,_gElCount
000a10 91b0 051a 	LDS  R27,_gElCount+1
000a12 3ea8      	CPI  R26,LOW(0x3E8)
000a13 e0e3      	LDI  R30,HIGH(0x3E8)
000a14 07be      	CPC  R27,R30
000a15 f024      	BRLT _0xE00A3
000a16 eee7      	LDI  R30,LOW(999)
000a17 e0f3      	LDI  R31,HIGH(999)
000a18 940e 0b57 	CALL SUBOPT_0x11
                 ; 0007 032B             HIGH_COMPLETE_LED;
                 _0xE00A3:
000a1a 91e0 0062 	LDS  R30,98
000a1c 68e0      	ORI  R30,0x80
000a1d 93e0 0062 	STS  98,R30
                 ; 0007 032C          }
                 ; 0007 032D          else
000a1f c005      	RJMP _0xE00A4
                 _0xE00A2:
                 ; 0007 032E          {
                 ; 0007 032F             gError |= (1<<ERROR_ELOUT);  //2.5V
000a20 91e0 0513 	LDS  R30,_gError
000a22 60e2      	ORI  R30,2
000a23 940e 0c76 	CALL SUBOPT_0x2E
                 ; 0007 0330             gCurMode =  CUR_ERROR;
                 ; 0007 0331 
                 ; 0007 0332            // LOW_COMPLETE_LED;
                 ; 0007 0333          }
                 _0xE00A4:
                 ; 0007 0334          HIGH_SH;
000a25 9ac6      	SBI  0x18,6
                 ; 0007 0335       }
                 ; 0007 0336    }
                 _0xE009F:
                 ; 0007 0337    gAdcLoc++;
                 _0xE009E:
                 _0xE009D:
                 _0xE007D:
000a26 e7a3      	LDI  R26,LOW(_gAdcLoc)
000a27 e0b7      	LDI  R27,HIGH(_gAdcLoc)
000a28 940e 0cb0 	CALL SUBOPT_0x35
                 ; 0007 0338    if( gAdcLoc > 2 ) gAdcLoc = 0;
000a2a 940e 0d64 	CALL SUBOPT_0x4C
000a2c 9713      	SBIW R26,3
000a2d f02c      	BRLT _0xE00A7
000a2e e0e0      	LDI  R30,LOW(0)
000a2f 93e0 0773 	STS  _gAdcLoc,R30
000a31 93e0 0774 	STS  _gAdcLoc+1,R30
                 ; 0007 0339 }
                 _0xE00A7:
000a33 940e 0fc3 	CALL __LOADLOCR6
000a35 962a      	ADIW R28,10
000a36 9508      	RET
                 ; .FEND
                 ;
                 ;void DisplayLed( void )
                 ; 0007 033C {
                 _DisplayLed:
                 ; .FSTART _DisplayLed
                 ; 0007 033D     if( gError > ERROR_NO )
000a37 91a0 0513 	LDS  R26,_gError
000a39 30a1      	CPI  R26,LOW(0x1)
000a3a f030      	BRLO _0xE00A8
                 ; 0007 033E     {
                 ; 0007 033F        HIGH_WARRING_LED;
000a3b 91e0 0062 	LDS  R30,98
000a3d 64e0      	ORI  R30,0x40
000a3e 93e0 0062 	STS  98,R30
                 ; 0007 0340        LOW_COMPLETE_LED;
000a40 c00d      	RJMP _0xE00C0
                 ; 0007 0341     }
                 ; 0007 0342     else
                 _0xE00A8:
                 ; 0007 0343     {
                 ; 0007 0344        LOW_WARRING_LED;
000a41 91e0 0062 	LDS  R30,98
000a43 7bef      	ANDI R30,0xBF
000a44 93e0 0062 	STS  98,R30
                 ; 0007 0345 
                 ; 0007 0346        if( gFlag == FLAG_COMPLETE )
000a46 91a0 0512 	LDS  R26,_gFlag
000a48 30a4      	CPI  R26,LOW(0x4)
000a49 f421      	BRNE _0xE00AA
                 ; 0007 0347              HIGH_COMPLETE_LED;
000a4a 91e0 0062 	LDS  R30,98
000a4c 68e0      	ORI  R30,0x80
000a4d c003      	RJMP _0xE00C1
                 ; 0007 0348        else  LOW_COMPLETE_LED;
                 _0xE00AA:
                 _0xE00C0:
000a4e 91e0 0062 	LDS  R30,98
000a50 77ef      	ANDI R30,0x7F
                 _0xE00C1:
000a51 93e0 0062 	STS  98,R30
                 ; 0007 0349     }
                 ; 0007 034A }
000a53 9508      	RET
                 ; .FEND
                 ;void UserProcessor( void )
                 ; 0007 034C {
                 _UserProcessor:
                 ; .FSTART _UserProcessor
                 ; 0007 034D    if( gCurMode == CUR_INIT )
000a54 91e0 051b 	LDS  R30,_gCurMode
000a56 30e0      	CPI  R30,0
000a57 f4a9      	BRNE _0xE00AC
                 ; 0007 034E    {
                 ; 0007 034F       DAC7611_WriteVoltage(0);
000a58 e0a0      	LDI  R26,LOW(0)
000a59 e0b0      	LDI  R27,0
000a5a 940e 0c52 	CALL SUBOPT_0x2A
                 ; 0007 0350       LOW_PWM;
000a5c 7fe7      	ANDI R30,0XF7
000a5d 93e0 0065 	STS  101,R30
                 ; 0007 0351       LOW_OUTRY;
000a5f 91e0 0065 	LDS  R30,101
000a61 7eef      	ANDI R30,0xEF
000a62 93e0 0065 	STS  101,R30
                 ; 0007 0352       gMode = MODE_STOP;
000a64 e0e0      	LDI  R30,LOW(0)
000a65 93e0 050a 	STS  _gMode,R30
                 ; 0007 0353       gFlag = FLAG_STADNBY;
000a67 93e0 0512 	STS  _gFlag,R30
                 ; 0007 0354 
                 ; 0007 0355       gCurMode = CUR_OK;
000a69 e0e1      	LDI  R30,LOW(1)
000a6a 93e0 051b 	STS  _gCurMode,R30
                 ; 0007 0356 
                 ; 0007 0357      // LOW_COMPLETE_LED;
                 ; 0007 0358      // LOW_WARRING_LED;
                 ; 0007 0359    }
                 ; 0007 035A    else if( gCurMode == CUR_OK )
000a6c c018      	RJMP _0xE00AD
                 _0xE00AC:
000a6d 91a0 051b 	LDS  R26,_gCurMode
000a6f 30a1      	CPI  R26,LOW(0x1)
000a70 f419      	BRNE _0xE00AE
                 ; 0007 035B    {
                 ; 0007 035C        ADCProcessor();
000a71 de8b      	RCALL _ADCProcessor
                 ; 0007 035D        DisplayLed();
000a72 dfc4      	RCALL _DisplayLed
                 ; 0007 035E    }
                 ; 0007 035F    else if( gCurMode == CUR_ERROR )
000a73 c011      	RJMP _0xE00AF
                 _0xE00AE:
000a74 91a0 051b 	LDS  R26,_gCurMode
000a76 30a2      	CPI  R26,LOW(0x2)
000a77 f469      	BRNE _0xE00B0
                 ; 0007 0360    {
                 ; 0007 0361        gCurMode = CUR_INIT;
000a78 e0e0      	LDI  R30,LOW(0)
000a79 93e0 051b 	STS  _gCurMode,R30
                 ; 0007 0362        // gInitCount = 0;
                 ; 0007 0363        LOW_COMPLETE_LED;
000a7b 91e0 0062 	LDS  R30,98
000a7d 77ef      	ANDI R30,0x7F
000a7e 93e0 0062 	STS  98,R30
                 ; 0007 0364        HIGH_WARRING_LED;
000a80 91e0 0062 	LDS  R30,98
000a82 64e0      	ORI  R30,0x40
000a83 93e0 0062 	STS  98,R30
                 ; 0007 0365    }
                 ; 0007 0366 }
                 _0xE00B0:
                 _0xE00AF:
                 _0xE00AD:
000a85 9508      	RET
                 ; .FEND
                 ;
                 ;void main()
                 ; 0007 0369 {
                 _main:
                 ; .FSTART _main
                 ; 0007 036A    BYTE wEvent;
                 ; 0007 036B    int mTimeUart0,mTimeUart1;
                 ; 0007 036C 
                 ; 0007 036D    SystemInit( );
                 ;	wEvent -> R17
                 ;	mTimeUart0 -> R18,R19
                 ;	mTimeUart1 -> R20,R21
000a86 dd61      	RCALL _SystemInit
                 ; 0007 036E 
                 ; 0007 036F    mTimeUart0 = mTimeUart1 = 0;
000a87 e0e0      	LDI  R30,LOW(0)
000a88 e0f0      	LDI  R31,HIGH(0)
000a89 01af      	MOVW R20,R30
000a8a 019f      	MOVW R18,R30
                 ; 0007 0370    // Global enable interrupts
                 ; 0007 0371    #asm("sei");
000a8b 9478      	sei
                 ; 0007 0372 
                 ; 0007 0373    while ( TRUE )
                 _0xE00B1:
                 ; 0007 0374    {
                 ; 0007 0375       wEvent = WaitEvent();
000a8c dd6e      	RCALL _WaitEvent
000a8d 2f1e      	MOV  R17,R30
                 ; 0007 0376       if( wEvent == EVN_RCVUART0 )
000a8e 3011      	CPI  R17,1
000a8f f451      	BRNE _0xE00B4
                 ; 0007 0377       {
                 ; 0007 0378           IPC_RunProcess0( );  //handle
000a90 940e 04a8 	CALL _IPC_RunProcess0
                 ; 0007 0379           mTimeUart0 = 0;
                +
000a92 e020     +LDI R18 , LOW ( 0 )
000a93 e030     +LDI R19 , HIGH ( 0 )
                 	__GETWRN 18,19,0
                 ; 0007 037A           gError &= ~(1<<ERROR_NOTHANDLE);
000a94 91e0 0513 	LDS  R30,_gError
000a96 7def      	ANDI R30,0xDF
000a97 93e0 0513 	STS  _gError,R30
                 ; 0007 037B       }
                 ; 0007 037C       else if( wEvent == EVN_RCVUART1 )
000a99 c03b      	RJMP _0xE00B5
                 _0xE00B4:
000a9a 3012      	CPI  R17,2
000a9b f451      	BRNE _0xE00B6
                 ; 0007 037D       {
                 ; 0007 037E           IPC_RunProcess1( );  //LCD Pannel
000a9c 940e 034b 	CALL _IPC_RunProcess1
                 ; 0007 037F           mTimeUart1 = 0;
                +
000a9e e040     +LDI R20 , LOW ( 0 )
000a9f e050     +LDI R21 , HIGH ( 0 )
                 	__GETWRN 20,21,0
                 ; 0007 0380           gError &= ~(1<<ERROR_NOTLCD);
000aa0 91e0 0513 	LDS  R30,_gError
000aa2 7bef      	ANDI R30,0xBF
000aa3 93e0 0513 	STS  _gError,R30
                 ; 0007 0381       }
                 ; 0007 0382       else if(wEvent == EVN_TIMEOVER )
000aa5 c02f      	RJMP _0xE00B7
                 _0xE00B6:
000aa6 3013      	CPI  R17,3
000aa7 f569      	BRNE _0xE00B8
                 ; 0007 0383       {
                 ; 0007 0384         UserProcessor();
000aa8 dfab      	RCALL _UserProcessor
                 ; 0007 0385 
                 ; 0007 0386         if( ++mTimeUart0 > 7 ) //2.1sec
000aa9 01f9      	MOVW R30,R18
000aaa 9631      	ADIW R30,1
000aab 019f      	MOVW R18,R30
000aac 9738      	SBIW R30,8
000aad f03c      	BRLT _0xE00B9
                 ; 0007 0387         {
                 ; 0007 0388             mTimeUart0 = 0;
                +
000aae e020     +LDI R18 , LOW ( 0 )
000aaf e030     +LDI R19 , HIGH ( 0 )
                 	__GETWRN 18,19,0
                 ; 0007 0389             gError |= (1<<ERROR_NOTHANDLE);
000ab0 91e0 0513 	LDS  R30,_gError
000ab2 62e0      	ORI  R30,0x20
000ab3 940e 0c76 	CALL SUBOPT_0x2E
                 ; 0007 038A             gCurMode = CUR_ERROR;
                 ; 0007 038B         }
                 ; 0007 038C         if( ++mTimeUart1 > 7 ) //2.1sec
                 _0xE00B9:
000ab5 01fa      	MOVW R30,R20
000ab6 9631      	ADIW R30,1
000ab7 01af      	MOVW R20,R30
000ab8 9738      	SBIW R30,8
000ab9 f03c      	BRLT _0xE00BA
                 ; 0007 038D         {
                 ; 0007 038E             mTimeUart1 = 0;
                +
000aba e040     +LDI R20 , LOW ( 0 )
000abb e050     +LDI R21 , HIGH ( 0 )
                 	__GETWRN 20,21,0
                 ; 0007 038F             gError |= (1<<ERROR_NOTLCD);
000abc 91e0 0513 	LDS  R30,_gError
000abe 64e0      	ORI  R30,0x40
000abf 940e 0c76 	CALL SUBOPT_0x2E
                 ; 0007 0390             gCurMode = CUR_ERROR;
                 ; 0007 0391         }
                 ; 0007 0392 
                 ; 0007 0393         //yjw add 2021.04.03
                 ; 0007 0394         //set volatge2
                 ; 0007 0395         if(!gSetVolagteInitTime &&  gRunFlag==FALSE)
                 _0xE00BA:
000ac1 91e0 0784 	LDS  R30,_gSetVolagteInitTime
000ac3 91f0 0785 	LDS  R31,_gSetVolagteInitTime+1
000ac5 9730      	SBIW R30,0
000ac6 f421      	BRNE _0xE00BC
000ac7 91a0 050b 	LDS  R26,_gRunFlag
000ac9 30a0      	CPI  R26,LOW(0x0)
000aca f009      	BREQ _0xE00BD
                 _0xE00BC:
000acb c009      	RJMP _0xE00BB
                 _0xE00BD:
                 ; 0007 0396         {
                 ; 0007 0397             if( IN_FET_SEN )
000acc 9b84      	SBIS 0x10,4
000acd c007      	RJMP _0xE00BE
                 ; 0007 0398             {
                 ; 0007 0399                 PORTC = 0x00;
000ace e0e0      	LDI  R30,LOW(0)
000acf bbe5      	OUT  0x15,R30
                 ; 0007 039A                 gError |= (1<<ERROR_VOL);
000ad0 91e0 0513 	LDS  R30,_gError
000ad2 60e1      	ORI  R30,1
000ad3 940e 0c76 	CALL SUBOPT_0x2E
                 ; 0007 039B                 gCurMode =  CUR_ERROR;
                 ; 0007 039C             }
                 ; 0007 039D         }
                 _0xE00BE:
                 ; 0007 039E 
                 ; 0007 039F 
                 ; 0007 03A0       }
                 _0xE00BB:
                 ; 0007 03A1    }
                 _0xE00B8:
                 _0xE00B7:
                 _0xE00B5:
000ad5 cfb6      	RJMP _0xE00B1
                 ; 0007 03A2 }
                 _0xE00BF:
000ad6 cfff      	RJMP _0xE00BF
                 ; .FEND
                 ;
                 	#ifndef __SLEEP_DEFINED__
                 	#endif
                 
                 	.CSEG
                 
                 	.CSEG
                 _memset:
                 ; .FSTART _memset
000ad7 93ba      	ST   -Y,R27
000ad8 93aa      	ST   -Y,R26
000ad9 81b9          ldd  r27,y+1
000ada 81a8          ld   r26,y
000adb 9610          adiw r26,0
000adc f031          breq memset1
000add 81fc          ldd  r31,y+4
000ade 81eb          ldd  r30,y+3
000adf 816a          ldd  r22,y+2
                 memset0:
000ae0 9361          st   z+,r22
000ae1 9711          sbiw r26,1
000ae2 f7e9          brne memset0
                 memset1:
000ae3 81eb          ldd  r30,y+3
000ae4 81fc          ldd  r31,y+4
                 _0x20A0001:
000ae5 9625      	ADIW R28,5
000ae6 9508      	RET
                 ; .FEND
                 
                 	.CSEG
                 
                 	.CSEG
                 
                 	.CSEG
                 
                 	.DSEG
                 
                 	.CSEG
                 
                 	.DSEG
                 _gElMatrix:
000500           	.BYTE 0x4
                 _goldTime1ms:
000504           	.BYTE 0x2
                 _gTime1ms:
000506           	.BYTE 0x2
                 _gVoltage:
000508           	.BYTE 0x2
                 _gMode:
00050a           	.BYTE 0x1
                 _gRunFlag:
00050b           	.BYTE 0x1
                 _gDose:
00050c           	.BYTE 0x2
                 _gDepth:
00050e           	.BYTE 0x2
                 _gSpeed:
000510           	.BYTE 0x2
                 _gFlag:
000512           	.BYTE 0x1
                 _gError:
000513           	.BYTE 0x1
                 _gMotorPos1:
000514           	.BYTE 0x2
                 _gMotorPos2:
000516           	.BYTE 0x2
                 _gElCompletFlag:
000518           	.BYTE 0x1
                 _gElCount:
000519           	.BYTE 0x2
                 _gCurMode:
00051b           	.BYTE 0x1
                 _gReadyActionFlag:
00051c           	.BYTE 0x1
                 _gVolChkCount:
00051d           	.BYTE 0x2
                 _IPC1Rcvfun:
00051f           	.BYTE 0x18
                 _IPC1Sndfun:
000537           	.BYTE 0x18
                 _IPC0Rcvfun:
00054f           	.BYTE 0x18
                 _IPC0Sndfun:
000567           	.BYTE 0x18
                 _rx_buffer0:
00057f           	.BYTE 0xFA
                 _rx_buffer1:
000679           	.BYTE 0xFA
                 _gAdcLoc:
000773           	.BYTE 0x2
                 _gElLoc:
000775           	.BYTE 0x2
                 _gCurState:
000777           	.BYTE 0x2
                 _gCalValue0:
000779           	.BYTE 0x2
                 _gCalValue1:
00077b           	.BYTE 0x2
                 _gDutyOff:
00077d           	.BYTE 0x2
                 _gShotCnt:
00077f           	.BYTE 0x1
                 _gShotWaitTime:
000780           	.BYTE 0x2
                 _gShotGapWaitTime:
000782           	.BYTE 0x2
                 _gSetVolagteInitTime:
000784           	.BYTE 0x2
                 _gShift:
000786           	.BYTE 0x2
                 _gVolAdjCount:
000788           	.BYTE 0x2
                 _gGenMode:
00078a           	.BYTE 0x1
                 __seed_G104:
00078b           	.BYTE 0x4
                 
                 	.CSEG
                 ;OPTIMIZER ADDED SUBROUTINE, CALLED 3 TIMES, CODE SIZE REDUCTION:1 WORDS
                 SUBOPT_0x0:
000ae7 931a      	ST   -Y,R17
000ae8 930a      	ST   -Y,R16
                +
000ae9 e000     +LDI R16 , LOW ( 0 )
000aea e010     +LDI R17 , HIGH ( 0 )
                 	__GETWRN 16,17,0
000aeb 9508      	RET
                 
                 ;OPTIMIZER ADDED SUBROUTINE, CALLED 3 TIMES, CODE SIZE REDUCTION:1 WORDS
                 SUBOPT_0x1:
000aec 93ba      	ST   -Y,R27
000aed 93aa      	ST   -Y,R26
000aee 940e 0fbe 	CALL __SAVELOCR4
000af0 9508      	RET
                 
                 ;OPTIMIZER ADDED SUBROUTINE, CALLED 3 TIMES, CODE SIZE REDUCTION:3 WORDS
                 SUBOPT_0x2:
000af1 9754      	SBIW R26,20
000af2 e0ea      	LDI  R30,LOW(10)
000af3 e0f0      	LDI  R31,HIGH(10)
000af4 940e 0f8e 	CALL __DIVW21
000af6 9508      	RET
                 
                 ;OPTIMIZER ADDED SUBROUTINE, CALLED 5 TIMES, CODE SIZE REDUCTION:9 WORDS
                 SUBOPT_0x3:
000af7 01f9      	MOVW R30,R18
000af8 940e 0f76 	CALL __CWD1
000afa 940e 0e0a 	CALL __CDF1
000afc 9508      	RET
                 
                 ;OPTIMIZER ADDED SUBROUTINE, CALLED 3 TIMES, CODE SIZE REDUCTION:3 WORDS
                 SUBOPT_0x4:
000afd 93ba      	ST   -Y,R27
000afe 93aa      	ST   -Y,R26
000aff 931a      	ST   -Y,R17
000b00 81e9      	LDD  R30,Y+1
000b01 81fa      	LDD  R31,Y+1+1
000b02 9508      	RET
                 
                 ;OPTIMIZER ADDED SUBROUTINE, CALLED 8 TIMES, CODE SIZE REDUCTION:11 WORDS
                 SUBOPT_0x5:
000b03 93ba      	ST   -Y,R27
000b04 93aa      	ST   -Y,R26
000b05 81e8      	LD   R30,Y
000b06 81f9      	LDD  R31,Y+1
000b07 9508      	RET
                 
                 ;OPTIMIZER ADDED SUBROUTINE, CALLED 4 TIMES, CODE SIZE REDUCTION:3 WORDS
                 SUBOPT_0x6:
000b08 93e0 050c 	STS  _gDose,R30
000b0a 93f0 050d 	STS  _gDose+1,R31
000b0c 9508      	RET
                 
                 ;OPTIMIZER ADDED SUBROUTINE, CALLED 3 TIMES, CODE SIZE REDUCTION:3 WORDS
                 SUBOPT_0x7:
000b0d e0e0      	LDI  R30,LOW(0)
000b0e 93e0 050c 	STS  _gDose,R30
000b10 93e0 050d 	STS  _gDose+1,R30
000b12 9508      	RET
                 
                 ;OPTIMIZER ADDED SUBROUTINE, CALLED 2 TIMES, CODE SIZE REDUCTION:5 WORDS
                 SUBOPT_0x8:
000b13 e0f0      	LDI  R31,0
000b14 93e0 0508 	STS  _gVoltage,R30
000b16 93f0 0509 	STS  _gVoltage+1,R31
000b18 91a0 0508 	LDS  R26,_gVoltage
000b1a 91b0 0509 	LDS  R27,_gVoltage+1
000b1c 97dc      	SBIW R26,60
000b1d 9508      	RET
                 
                 ;OPTIMIZER ADDED SUBROUTINE, CALLED 2 TIMES, CODE SIZE REDUCTION:1 WORDS
                 SUBOPT_0x9:
000b1e e3ec      	LDI  R30,LOW(60)
000b1f e0f0      	LDI  R31,HIGH(60)
000b20 93e0 0508 	STS  _gVoltage,R30
000b22 93f0 0509 	STS  _gVoltage+1,R31
000b24 9508      	RET
                 
                 ;OPTIMIZER ADDED SUBROUTINE, CALLED 11 TIMES, CODE SIZE REDUCTION:17 WORDS
                 SUBOPT_0xA:
000b25 91a0 0508 	LDS  R26,_gVoltage
000b27 91b0 0509 	LDS  R27,_gVoltage+1
000b29 9508      	RET
                 
                 ;OPTIMIZER ADDED SUBROUTINE, CALLED 2 TIMES, CODE SIZE REDUCTION:1 WORDS
                 SUBOPT_0xB:
000b2a e7e8      	LDI  R30,LOW(120)
000b2b e0f0      	LDI  R31,HIGH(120)
000b2c 93e0 0508 	STS  _gVoltage,R30
000b2e 93f0 0509 	STS  _gVoltage+1,R31
000b30 9508      	RET
                 
                 ;OPTIMIZER ADDED SUBROUTINE, CALLED 2 TIMES, CODE SIZE REDUCTION:3 WORDS
                 SUBOPT_0xC:
000b31 e0f0      	LDI  R31,0
000b32 93e0 050e 	STS  _gDepth,R30
000b34 93f0 050f 	STS  _gDepth+1,R31
000b36 91a0 050f 	LDS  R26,_gDepth+1
000b38 23aa      	TST  R26
000b39 9508      	RET
                 
                 ;OPTIMIZER ADDED SUBROUTINE, CALLED 3 TIMES, CODE SIZE REDUCTION:3 WORDS
                 SUBOPT_0xD:
000b3a e0e0      	LDI  R30,LOW(0)
000b3b 93e0 050e 	STS  _gDepth,R30
000b3d 93e0 050f 	STS  _gDepth+1,R30
000b3f 9508      	RET
                 
                 ;OPTIMIZER ADDED SUBROUTINE, CALLED 2 TIMES, CODE SIZE REDUCTION:1 WORDS
                 SUBOPT_0xE:
000b40 e0e3      	LDI  R30,LOW(3)
000b41 e0f0      	LDI  R31,HIGH(3)
000b42 93e0 050e 	STS  _gDepth,R30
000b44 93f0 050f 	STS  _gDepth+1,R31
000b46 9508      	RET
                 
                 ;OPTIMIZER ADDED SUBROUTINE, CALLED 2 TIMES, CODE SIZE REDUCTION:3 WORDS
                 SUBOPT_0xF:
000b47 e0f0      	LDI  R31,0
000b48 93e0 0510 	STS  _gSpeed,R30
000b4a 93f0 0511 	STS  _gSpeed+1,R31
000b4c 91a0 0511 	LDS  R26,_gSpeed+1
000b4e 23aa      	TST  R26
000b4f 9508      	RET
                 
                 ;OPTIMIZER ADDED SUBROUTINE, CALLED 2 TIMES, CODE SIZE REDUCTION:1 WORDS
                 SUBOPT_0x10:
000b50 e0e2      	LDI  R30,LOW(2)
000b51 e0f0      	LDI  R31,HIGH(2)
000b52 93e0 0510 	STS  _gSpeed,R30
000b54 93f0 0511 	STS  _gSpeed+1,R31
000b56 9508      	RET
                 
                 ;OPTIMIZER ADDED SUBROUTINE, CALLED 3 TIMES, CODE SIZE REDUCTION:1 WORDS
                 SUBOPT_0x11:
000b57 93e0 0519 	STS  _gElCount,R30
000b59 93f0 051a 	STS  _gElCount+1,R31
000b5b 9508      	RET
                 
                 ;OPTIMIZER ADDED SUBROUTINE, CALLED 7 TIMES, CODE SIZE REDUCTION:9 WORDS
                 SUBOPT_0x12:
000b5c 93ba      	ST   -Y,R27
000b5d 93aa      	ST   -Y,R26
000b5e 931a      	ST   -Y,R17
000b5f 930a      	ST   -Y,R16
000b60 9508      	RET
                 
                 ;OPTIMIZER ADDED SUBROUTINE, CALLED 3 TIMES, CODE SIZE REDUCTION:1 WORDS
                 SUBOPT_0x13:
000b61 2fe1      	MOV  R30,R17
000b62 e0a1      	LDI  R26,LOW(1)
000b63 940e 0f53 	CALL __LSLB12
000b65 9508      	RET
                 
                 ;OPTIMIZER ADDED SUBROUTINE, CALLED 9 TIMES, CODE SIZE REDUCTION:61 WORDS
                 SUBOPT_0x14:
000b66 93ba      	ST   -Y,R27
000b67 93aa      	ST   -Y,R26
000b68 81a8      	LD   R26,Y
000b69 81b9      	LDD  R27,Y+1
000b6a 9612      	ADIW R26,2
000b6b e8e0      	LDI  R30,LOW(128)
000b6c 93ec      	ST   X,R30
000b6d 81a8      	LD   R26,Y
000b6e 81b9      	LDD  R27,Y+1
000b6f 9613      	ADIW R26,3
000b70 9508      	RET
                 
                 ;OPTIMIZER ADDED SUBROUTINE, CALLED 2 TIMES, CODE SIZE REDUCTION:2 WORDS
                 SUBOPT_0x15:
000b71 93ec      	ST   X,R30
000b72 91e0 050a 	LDS  R30,_gMode
                +
000b74 81a8     +LDD R26 , Y + 0
000b75 81b9     +LDD R27 , Y + 0 + 1
000b76 9614     +ADIW R26 , 4
000b77 93ec     +ST X , R30
                 	__PUTB1SNS 0,4
000b78 9508      	RET
                 
                 ;OPTIMIZER ADDED SUBROUTINE, CALLED 25 TIMES, CODE SIZE REDUCTION:45 WORDS
                 SUBOPT_0x16:
000b79 81e8      	LD   R30,Y
000b7a 81f9      	LDD  R31,Y+1
000b7b 93fa      	ST   -Y,R31
000b7c 93ea      	ST   -Y,R30
000b7d 9508      	RET
                 
                 ;OPTIMIZER ADDED SUBROUTINE, CALLED 13 TIMES, CODE SIZE REDUCTION:93 WORDS
                 SUBOPT_0x17:
000b7e e0a5      	LDI  R26,LOW(5)
000b7f e0b0      	LDI  R27,0
000b80 940e 0332 	CALL _MakeCrc
                +
000b82 81a8     +LDD R26 , Y + 0
000b83 81b9     +LDD R27 , Y + 0 + 1
000b84 9615     +ADIW R26 , 5
000b85 93ec     +ST X , R30
                 	__PUTB1SNS 0,5
000b86 cff2      	RJMP SUBOPT_0x16
                 
                 ;OPTIMIZER ADDED SUBROUTINE, CALLED 2 TIMES, CODE SIZE REDUCTION:3 WORDS
                 SUBOPT_0x18:
000b87 e0e1      	LDI  R30,LOW(1)
000b88 93ec      	ST   X,R30
000b89 91e0 050b 	LDS  R30,_gRunFlag
                +
000b8b 81a8     +LDD R26 , Y + 0
000b8c 81b9     +LDD R27 , Y + 0 + 1
000b8d 9614     +ADIW R26 , 4
000b8e 93ec     +ST X , R30
                 	__PUTB1SNS 0,4
000b8f 9508      	RET
                 
                 ;OPTIMIZER ADDED SUBROUTINE, CALLED 15 TIMES, CODE SIZE REDUCTION:67 WORDS
                 SUBOPT_0x19:
000b90 93ba      	ST   -Y,R27
000b91 93aa      	ST   -Y,R26
000b92 81a8      	LD   R26,Y
000b93 81b9      	LDD  R27,Y+1
000b94 9612      	ADIW R26,2
000b95 e8e0      	LDI  R30,LOW(128)
000b96 93ec      	ST   X,R30
000b97 9508      	RET
                 
                 ;OPTIMIZER ADDED SUBROUTINE, CALLED 2 TIMES, CODE SIZE REDUCTION:11 WORDS
                 SUBOPT_0x1A:
000b98 91e0 050c 	LDS  R30,_gDose
000b9a 91f0 050d 	LDS  R31,_gDose+1
000b9c 940e 0f71 	CALL __ASRW8
                +
000b9e 81a8     +LDD R26 , Y + 0
000b9f 81b9     +LDD R27 , Y + 0 + 1
000ba0 9613     +ADIW R26 , 3
000ba1 93ec     +ST X , R30
                 	__PUTB1SNS 0,3
000ba2 91e0 050c 	LDS  R30,_gDose
                +
000ba4 81a8     +LDD R26 , Y + 0
000ba5 81b9     +LDD R27 , Y + 0 + 1
000ba6 9614     +ADIW R26 , 4
000ba7 93ec     +ST X , R30
                 	__PUTB1SNS 0,4
000ba8 9508      	RET
                 
                 ;OPTIMIZER ADDED SUBROUTINE, CALLED 2 TIMES, CODE SIZE REDUCTION:11 WORDS
                 SUBOPT_0x1B:
000ba9 91e0 0508 	LDS  R30,_gVoltage
000bab 91f0 0509 	LDS  R31,_gVoltage+1
000bad 940e 0f71 	CALL __ASRW8
                +
000baf 81a8     +LDD R26 , Y + 0
000bb0 81b9     +LDD R27 , Y + 0 + 1
000bb1 9613     +ADIW R26 , 3
000bb2 93ec     +ST X , R30
                 	__PUTB1SNS 0,3
000bb3 91e0 0508 	LDS  R30,_gVoltage
                +
000bb5 81a8     +LDD R26 , Y + 0
000bb6 81b9     +LDD R27 , Y + 0 + 1
000bb7 9614     +ADIW R26 , 4
000bb8 93ec     +ST X , R30
                 	__PUTB1SNS 0,4
000bb9 9508      	RET
                 
                 ;OPTIMIZER ADDED SUBROUTINE, CALLED 2 TIMES, CODE SIZE REDUCTION:11 WORDS
                 SUBOPT_0x1C:
000bba 91e0 050e 	LDS  R30,_gDepth
000bbc 91f0 050f 	LDS  R31,_gDepth+1
000bbe 940e 0f71 	CALL __ASRW8
                +
000bc0 81a8     +LDD R26 , Y + 0
000bc1 81b9     +LDD R27 , Y + 0 + 1
000bc2 9613     +ADIW R26 , 3
000bc3 93ec     +ST X , R30
                 	__PUTB1SNS 0,3
000bc4 91e0 050e 	LDS  R30,_gDepth
                +
000bc6 81a8     +LDD R26 , Y + 0
000bc7 81b9     +LDD R27 , Y + 0 + 1
000bc8 9614     +ADIW R26 , 4
000bc9 93ec     +ST X , R30
                 	__PUTB1SNS 0,4
000bca 9508      	RET
                 
                 ;OPTIMIZER ADDED SUBROUTINE, CALLED 2 TIMES, CODE SIZE REDUCTION:11 WORDS
                 SUBOPT_0x1D:
000bcb 91e0 0510 	LDS  R30,_gSpeed
000bcd 91f0 0511 	LDS  R31,_gSpeed+1
000bcf 940e 0f71 	CALL __ASRW8
                +
000bd1 81a8     +LDD R26 , Y + 0
000bd2 81b9     +LDD R27 , Y + 0 + 1
000bd3 9613     +ADIW R26 , 3
000bd4 93ec     +ST X , R30
                 	__PUTB1SNS 0,3
000bd5 91e0 0510 	LDS  R30,_gSpeed
                +
000bd7 81a8     +LDD R26 , Y + 0
000bd8 81b9     +LDD R27 , Y + 0 + 1
000bd9 9614     +ADIW R26 , 4
000bda 93ec     +ST X , R30
                 	__PUTB1SNS 0,4
000bdb 9508      	RET
                 
                 ;OPTIMIZER ADDED SUBROUTINE, CALLED 2 TIMES, CODE SIZE REDUCTION:11 WORDS
                 SUBOPT_0x1E:
000bdc 91e0 0519 	LDS  R30,_gElCount
000bde 91f0 051a 	LDS  R31,_gElCount+1
000be0 940e 0f71 	CALL __ASRW8
                +
000be2 81a8     +LDD R26 , Y + 0
000be3 81b9     +LDD R27 , Y + 0 + 1
000be4 9613     +ADIW R26 , 3
000be5 93ec     +ST X , R30
                 	__PUTB1SNS 0,3
000be6 91e0 0519 	LDS  R30,_gElCount
                +
000be8 81a8     +LDD R26 , Y + 0
000be9 81b9     +LDD R27 , Y + 0 + 1
000bea 9614     +ADIW R26 , 4
000beb 93ec     +ST X , R30
                 	__PUTB1SNS 0,4
000bec 9508      	RET
                 
                 ;OPTIMIZER ADDED SUBROUTINE, CALLED 4 TIMES, CODE SIZE REDUCTION:3 WORDS
                 SUBOPT_0x1F:
                +
000bed 81a8     +LDD R26 , Y + 0
000bee 81b9     +LDD R27 , Y + 0 + 1
000bef 9613     +ADIW R26 , 3
000bf0 93ec     +ST X , R30
                 	__PUTB1SNS 0,3
000bf1 9508      	RET
                 
                 ;OPTIMIZER ADDED SUBROUTINE, CALLED 2 TIMES, CODE SIZE REDUCTION:1 WORDS
                 SUBOPT_0x20:
000bf2 91e0 0512 	LDS  R30,_gFlag
                +
000bf4 81a8     +LDD R26 , Y + 0
000bf5 81b9     +LDD R27 , Y + 0 + 1
000bf6 9614     +ADIW R26 , 4
000bf7 93ec     +ST X , R30
                 	__PUTB1SNS 0,4
000bf8 9508      	RET
                 
                 ;OPTIMIZER ADDED SUBROUTINE, CALLED 4 TIMES, CODE SIZE REDUCTION:9 WORDS
                 SUBOPT_0x21:
                +
000bf9 81a8     +LDD R26 , Y + 0
000bfa 81b9     +LDD R27 , Y + 0 + 1
000bfb 9614     +ADIW R26 , 4
000bfc 93ec     +ST X , R30
                 	__PUTB1SNS 0,4
000bfd cf7b      	RJMP SUBOPT_0x16
                 
                 ;OPTIMIZER ADDED SUBROUTINE, CALLED 2 TIMES, CODE SIZE REDUCTION:3 WORDS
                 SUBOPT_0x22:
000bfe 976e      	SBIW R28,30
000bff 940e 0fbc 	CALL __SAVELOCR6
000c01 01fe      	MOVW R30,R28
000c02 9636      	ADIW R30,6
000c03 93fa      	ST   -Y,R31
000c04 93ea      	ST   -Y,R30
000c05 e0a7      	LDI  R26,LOW(7)
000c06 9508      	RET
                 
                 ;OPTIMIZER ADDED SUBROUTINE, CALLED 2 TIMES, CODE SIZE REDUCTION:11 WORDS
                 SUBOPT_0x23:
000c07 2f1e      	MOV  R17,R30
000c08 01fe      	MOVW R30,R28
000c09 9636      	ADIW R30,6
000c0a 01af      	MOVW R20,R30
000c0b 01fe      	MOVW R30,R28
000c0c 9636      	ADIW R30,6
000c0d 93fa      	ST   -Y,R31
000c0e 93ea      	ST   -Y,R30
000c0f e0a5      	LDI  R26,LOW(5)
000c10 e0b0      	LDI  R27,0
000c11 940e 0332 	CALL _MakeCrc
000c13 2f0e      	MOV  R16,R30
000c14 01fa      	MOVW R30,R20
000c15 8135      	LDD  R19,Z+5
000c16 3017      	CPI  R17,7
000c17 9508      	RET
                 
                 ;OPTIMIZER ADDED SUBROUTINE, CALLED 4 TIMES, CODE SIZE REDUCTION:6 WORDS
                 SUBOPT_0x24:
000c18 93fa      	ST   -Y,R31
000c19 93ea      	ST   -Y,R30
000c1a e8a1      	LDI  R26,LOW(129)
000c1b 940c 036f 	JMP  _IPC_Send_Response1
                 
                 ;OPTIMIZER ADDED SUBROUTINE, CALLED 2 TIMES, CODE SIZE REDUCTION:26 WORDS
                 SUBOPT_0x25:
000c1d 93aa      	ST   -Y,R26
000c1e 931a      	ST   -Y,R17
000c1f 930a      	ST   -Y,R16
                +
000c20 810b     +LDD R16 , Y + 3
000c21 811c     +LDD R17 , Y + 3 + 1
                 	__GETWRS 16,17,3
000c22 81ea      	LDD  R30,Y+2
                +
000c23 01d8     +MOVW R26 , R16
000c24 9612     +ADIW R26 , 2
000c25 93ec     +ST X , R30
                 	__PUTB1RNS 16,2
000c26 01d8      	MOVW R26,R16
000c27 9613      	ADIW R26,3
000c28 e0e0      	LDI  R30,LOW(0)
000c29 93ec      	ST   X,R30
000c2a 01d8      	MOVW R26,R16
000c2b 9614      	ADIW R26,4
000c2c 93ec      	ST   X,R30
000c2d 931a      	ST   -Y,R17
000c2e 930a      	ST   -Y,R16
000c2f e0a5      	LDI  R26,LOW(5)
000c30 e0b0      	LDI  R27,0
000c31 940e 0332 	CALL _MakeCrc
                +
000c33 01d8     +MOVW R26 , R16
000c34 9615     +ADIW R26 , 5
000c35 93ec     +ST X , R30
                 	__PUTB1RNS 16,5
000c36 81eb      	LDD  R30,Y+3
000c37 81fc      	LDD  R31,Y+3+1
000c38 93fa      	ST   -Y,R31
000c39 93ea      	ST   -Y,R30
000c3a e0a7      	LDI  R26,LOW(7)
000c3b 9508      	RET
                 
                 ;OPTIMIZER ADDED SUBROUTINE, CALLED 4 TIMES, CODE SIZE REDUCTION:6 WORDS
                 SUBOPT_0x26:
                +
000c3c 810a     +LDD R16 , Y + 2
000c3d 811b     +LDD R17 , Y + 2 + 1
                 	__GETWRS 16,17,2
000c3e 01f8      	MOVW R30,R16
000c3f 81a2      	LDD  R26,Z+2
000c40 30ac      	CPI  R26,LOW(0xC)
000c41 9508      	RET
                 
                 ;OPTIMIZER ADDED SUBROUTINE, CALLED 4 TIMES, CODE SIZE REDUCTION:12 WORDS
                 SUBOPT_0x27:
000c42 e0f0      	LDI  R31,0
000c43 0fee      	LSL  R30
000c44 1fff      	ROL  R31
000c45 0fae      	ADD  R26,R30
000c46 1fbf      	ADC  R27,R31
000c47 940e 0fa1 	CALL __GETW1P
000c49 9508      	RET
                 
                 ;OPTIMIZER ADDED SUBROUTINE, CALLED 7 TIMES, CODE SIZE REDUCTION:9 WORDS
                 SUBOPT_0x28:
000c4a 81ea      	LDD  R30,Y+2
000c4b 81fb      	LDD  R31,Y+2+1
000c4c 93fa      	ST   -Y,R31
000c4d 93ea      	ST   -Y,R30
000c4e 9508      	RET
                 
                 ;OPTIMIZER ADDED SUBROUTINE, CALLED 3 TIMES, CODE SIZE REDUCTION:1 WORDS
                 SUBOPT_0x29:
000c4f 81ea      	LDD  R30,Y+2
000c50 81fb      	LDD  R31,Y+2+1
000c51 cfc6      	RJMP SUBOPT_0x24
                 
                 ;OPTIMIZER ADDED SUBROUTINE, CALLED 4 TIMES, CODE SIZE REDUCTION:3 WORDS
                 SUBOPT_0x2A:
000c52 940e 0151 	CALL _DAC7611_WriteVoltage
000c54 91e0 0065 	LDS  R30,101
000c56 9508      	RET
                 
                 ;OPTIMIZER ADDED SUBROUTINE, CALLED 2 TIMES, CODE SIZE REDUCTION:1 WORDS
                 SUBOPT_0x2B:
000c57 e0e0      	LDI  R30,LOW(0)
000c58 bbe5      	OUT  0x15,R30
000c59 e0a0      	LDI  R26,LOW(0)
000c5a e0b0      	LDI  R27,0
000c5b cff6      	RJMP SUBOPT_0x2A
                 
                 ;OPTIMIZER ADDED SUBROUTINE, CALLED 2 TIMES, CODE SIZE REDUCTION:6 WORDS
                 SUBOPT_0x2C:
000c5c 7fe7      	ANDI R30,0XF7
000c5d 93e0 0065 	STS  101,R30
000c5f 91e0 0065 	LDS  R30,101
000c61 7eef      	ANDI R30,0xEF
000c62 93e0 0065 	STS  101,R30
000c64 e0e0      	LDI  R30,LOW(0)
000c65 93e0 0512 	STS  _gFlag,R30
000c67 9508      	RET
                 
                 ;OPTIMIZER ADDED SUBROUTINE, CALLED 2 TIMES, CODE SIZE REDUCTION:8 WORDS
                 SUBOPT_0x2D:
000c68 81ea      	LDD  R30,Y+2
000c69 81fb      	LDD  R31,Y+2+1
000c6a 81e3      	LDD  R30,Z+3
000c6b 2ffe      	MOV  R31,R30
000c6c e0e0      	LDI  R30,0
000c6d 01df      	MOVW R26,R30
000c6e 81ea      	LDD  R30,Y+2
000c6f 81fb      	LDD  R31,Y+2+1
000c70 81e4      	LDD  R30,Z+4
000c71 e0f0      	LDI  R31,0
000c72 2bea      	OR   R30,R26
000c73 2bfb      	OR   R31,R27
000c74 018f      	MOVW R16,R30
000c75 9508      	RET
                 
                 ;OPTIMIZER ADDED SUBROUTINE, CALLED 8 TIMES, CODE SIZE REDUCTION:18 WORDS
                 SUBOPT_0x2E:
000c76 93e0 0513 	STS  _gError,R30
000c78 e0e2      	LDI  R30,LOW(2)
000c79 93e0 051b 	STS  _gCurMode,R30
000c7b 9508      	RET
                 
                 ;OPTIMIZER ADDED SUBROUTINE, CALLED 3 TIMES, CODE SIZE REDUCTION:7 WORDS
                 SUBOPT_0x2F:
000c7c e0e0      	LDI  R30,LOW(0)
000c7d 93ec      	ST   X,R30
000c7e 81a8      	LD   R26,Y
000c7f 81b9      	LDD  R27,Y+1
000c80 9614      	ADIW R26,4
000c81 93ec      	ST   X,R30
000c82 9508      	RET
                 
                 ;OPTIMIZER ADDED SUBROUTINE, CALLED 2 TIMES, CODE SIZE REDUCTION:1 WORDS
                 SUBOPT_0x30:
000c83 93ea      	ST   -Y,R30
000c84 93fa      	ST   -Y,R31
000c85 b7ef      	IN   R30,SREG
000c86 93ea      	ST   -Y,R30
000c87 931a      	ST   -Y,R17
000c88 930a      	ST   -Y,R16
000c89 9508      	RET
                 
                 ;OPTIMIZER ADDED SUBROUTINE, CALLED 2 TIMES, CODE SIZE REDUCTION:4 WORDS
                 SUBOPT_0x31:
000c8a 93aa      	ST   -Y,R26
000c8b 940e 0fbe 	CALL __SAVELOCR4
000c8d e010      	LDI  R17,0
000c8e e000      	LDI  R16,0
                +
000c8f 9120 0506+LDS R18 , 0 + ( _gTime1ms )
000c91 9130 0507+LDS R19 , 0 + ( _gTime1ms ) + 1
                 	__GETWRMN 18,19,0,_gTime1ms
000c93 9508      	RET
                 
                 ;OPTIMIZER ADDED SUBROUTINE, CALLED 2 TIMES, CODE SIZE REDUCTION:3 WORDS
                 SUBOPT_0x32:
000c94 2fe1      	MOV  R30,R17
000c95 81ad      	LDD  R26,Y+5
000c96 81be      	LDD  R27,Y+5+1
000c97 e0f0      	LDI  R31,0
000c98 0fea      	ADD  R30,R26
000c99 1ffb      	ADC  R31,R27
000c9a 8300      	ST   Z,R16
000c9b 5f1f      	SUBI R17,-1
000c9c 9508      	RET
                 
                 ;OPTIMIZER ADDED SUBROUTINE, CALLED 2 TIMES, CODE SIZE REDUCTION:4 WORDS
                 SUBOPT_0x33:
000c9d 91a0 0506 	LDS  R26,_gTime1ms
000c9f 91b0 0507 	LDS  R27,_gTime1ms+1
000ca1 1ba2      	SUB  R26,R18
000ca2 0bb3      	SBC  R27,R19
000ca3 3ba9      	CPI  R26,LOW(0xBB9)
000ca4 e0eb      	LDI  R30,HIGH(0xBB9)
000ca5 07be      	CPC  R27,R30
000ca6 9508      	RET
                 
                 ;OPTIMIZER ADDED SUBROUTINE, CALLED 2 TIMES, CODE SIZE REDUCTION:3 WORDS
                 SUBOPT_0x34:
000ca7 2fe1      	MOV  R30,R17
000ca8 5f1f      	SUBI R17,-1
000ca9 81aa      	LDD  R26,Y+2
000caa 81bb      	LDD  R27,Y+2+1
000cab e0f0      	LDI  R31,0
000cac 0fae      	ADD  R26,R30
000cad 1fbf      	ADC  R27,R31
000cae 91ac      	LD   R26,X
000caf 9508      	RET
                 
                 ;OPTIMIZER ADDED SUBROUTINE, CALLED 17 TIMES, CODE SIZE REDUCTION:45 WORDS
                 SUBOPT_0x35:
000cb0 91ed      	LD   R30,X+
000cb1 91fd      	LD   R31,X+
000cb2 9631      	ADIW R30,1
000cb3 93fe      	ST   -X,R31
000cb4 93ee      	ST   -X,R30
000cb5 9508      	RET
                 
                 ;OPTIMIZER ADDED SUBROUTINE, CALLED 3 TIMES, CODE SIZE REDUCTION:1 WORDS
                 SUBOPT_0x36:
000cb6 eee0      	LDI  R30,LOW(224)
000cb7 bded      	OUT  0x2D,R30
000cb8 ece0      	LDI  R30,LOW(192)
000cb9 bdec      	OUT  0x2C,R30
000cba 9508      	RET
                 
                 ;OPTIMIZER ADDED SUBROUTINE, CALLED 4 TIMES, CODE SIZE REDUCTION:9 WORDS
                 SUBOPT_0x37:
000cbb 91e0 0775 	LDS  R30,_gElLoc
000cbd 91f0 0776 	LDS  R31,_gElLoc+1
000cbf 50e0      	SUBI R30,LOW(-_gElMatrix)
000cc0 4ffb      	SBCI R31,HIGH(-_gElMatrix)
000cc1 9508      	RET
                 
                 ;OPTIMIZER ADDED SUBROUTINE, CALLED 2 TIMES, CODE SIZE REDUCTION:10 WORDS
                 SUBOPT_0x38:
000cc2 81e0      	LD   R30,Z
000cc3 95e2      	SWAP R30
000cc4 7fe0      	ANDI R30,0xF0
000cc5 e0f0      	LDI  R31,0
000cc6 93e0 0779 	STS  _gCalValue0,R30
000cc8 93f0 077a 	STS  _gCalValue0+1,R31
000cca e0e0      	LDI  R30,LOW(0)
000ccb 93e0 077b 	STS  _gCalValue1,R30
000ccd 93e0 077c 	STS  _gCalValue1+1,R30
                +
000ccf e000     +LDI R16 , LOW ( 0 )
000cd0 e010     +LDI R17 , HIGH ( 0 )
                 	__GETWRN 16,17,0
000cd1 9508      	RET
                 
                 ;OPTIMIZER ADDED SUBROUTINE, CALLED 2 TIMES, CODE SIZE REDUCTION:1 WORDS
                 SUBOPT_0x39:
000cd2 8010      	LD   R1,Z
000cd3 2fe0      	MOV  R30,R16
000cd4 e0a8      	LDI  R26,LOW(8)
000cd5 940e 0f5b 	CALL __LSRB12
000cd7 21e1      	AND  R30,R1
000cd8 9508      	RET
                 
                 ;OPTIMIZER ADDED SUBROUTINE, CALLED 2 TIMES, CODE SIZE REDUCTION:3 WORDS
                 SUBOPT_0x3A:
                +
000cd9 9300 0786+STS _gShift + ( 0 ) , R16
000cdb 9310 0787+STS _gShift + ( 0 ) + 1 , R17
                 	__PUTWMRN _gShift,0,16,17
000cdd e8a6      	LDI  R26,LOW(_gShift)
000cde e0b7      	LDI  R27,HIGH(_gShift)
000cdf cfd0      	RJMP SUBOPT_0x35
                 
                 ;OPTIMIZER ADDED SUBROUTINE, CALLED 6 TIMES, CODE SIZE REDUCTION:12 WORDS
                 SUBOPT_0x3B:
000ce0 91a0 0786 	LDS  R26,_gShift
000ce2 91b0 0787 	LDS  R27,_gShift+1
000ce4 9714      	SBIW R26,4
000ce5 9508      	RET
                 
                 ;OPTIMIZER ADDED SUBROUTINE, CALLED 6 TIMES, CODE SIZE REDUCTION:12 WORDS
                 SUBOPT_0x3C:
000ce6 e0e0      	LDI  R30,LOW(0)
000ce7 93e0 0786 	STS  _gShift,R30
000ce9 93e0 0787 	STS  _gShift+1,R30
000ceb 9508      	RET
                 
                 ;OPTIMIZER ADDED SUBROUTINE, CALLED 6 TIMES, CODE SIZE REDUCTION:32 WORDS
                 SUBOPT_0x3D:
000cec 91e0 0786 	LDS  R30,_gShift
000cee e0a8      	LDI  R26,LOW(8)
000cef 940e 0f5b 	CALL __LSRB12
000cf1 91a0 0779 	LDS  R26,_gCalValue0
000cf3 2bea      	OR   R30,R26
000cf4 bbe5      	OUT  0x15,R30
000cf5 9508      	RET
                 
                 ;OPTIMIZER ADDED SUBROUTINE, CALLED 2 TIMES, CODE SIZE REDUCTION:1 WORDS
                 SUBOPT_0x3E:
000cf6 e0e1      	LDI  R30,LOW(1)
000cf7 e0f0      	LDI  R31,HIGH(1)
000cf8 93e0 0777 	STS  _gCurState,R30
000cfa 93f0 0778 	STS  _gCurState+1,R31
000cfc 9508      	RET
                 
                 ;OPTIMIZER ADDED SUBROUTINE, CALLED 10 TIMES, CODE SIZE REDUCTION:15 WORDS
                 SUBOPT_0x3F:
000cfd 91a0 0777 	LDS  R26,_gCurState
000cff 91b0 0778 	LDS  R27,_gCurState+1
000d01 9508      	RET
                 
                 ;OPTIMIZER ADDED SUBROUTINE, CALLED 2 TIMES, CODE SIZE REDUCTION:4 WORDS
                 SUBOPT_0x40:
000d02 91e0 077b 	LDS  R30,_gCalValue1
000d04 bbe5      	OUT  0x15,R30
000d05 e0e2      	LDI  R30,LOW(2)
000d06 e0f0      	LDI  R31,HIGH(2)
000d07 93e0 0777 	STS  _gCurState,R30
000d09 93f0 0778 	STS  _gCurState+1,R31
000d0b 9508      	RET
                 
                 ;OPTIMIZER ADDED SUBROUTINE, CALLED 4 TIMES, CODE SIZE REDUCTION:3 WORDS
                 SUBOPT_0x41:
000d0c e8a6      	LDI  R26,LOW(_gShift)
000d0d e0b7      	LDI  R27,HIGH(_gShift)
000d0e cfa1      	RJMP SUBOPT_0x35
                 
                 ;OPTIMIZER ADDED SUBROUTINE, CALLED 2 TIMES, CODE SIZE REDUCTION:1 WORDS
                 SUBOPT_0x42:
000d0f e0e3      	LDI  R30,LOW(3)
000d10 e0f0      	LDI  R31,HIGH(3)
000d11 93e0 0777 	STS  _gCurState,R30
000d13 93f0 0778 	STS  _gCurState+1,R31
000d15 9508      	RET
                 
                 ;OPTIMIZER ADDED SUBROUTINE, CALLED 2 TIMES, CODE SIZE REDUCTION:4 WORDS
                 SUBOPT_0x43:
000d16 91e0 077b 	LDS  R30,_gCalValue1
000d18 bbe5      	OUT  0x15,R30
000d19 e0e4      	LDI  R30,LOW(4)
000d1a e0f0      	LDI  R31,HIGH(4)
000d1b 93e0 0777 	STS  _gCurState,R30
000d1d 93f0 0778 	STS  _gCurState+1,R31
000d1f 9508      	RET
                 
                 ;OPTIMIZER ADDED SUBROUTINE, CALLED 2 TIMES, CODE SIZE REDUCTION:1 WORDS
                 SUBOPT_0x44:
000d20 e0e5      	LDI  R30,LOW(5)
000d21 e0f0      	LDI  R31,HIGH(5)
000d22 93e0 0777 	STS  _gCurState,R30
000d24 93f0 0778 	STS  _gCurState+1,R31
000d26 9508      	RET
                 
                 ;OPTIMIZER ADDED SUBROUTINE, CALLED 2 TIMES, CODE SIZE REDUCTION:2 WORDS
                 SUBOPT_0x45:
000d27 91e0 077b 	LDS  R30,_gCalValue1
000d29 bbe5      	OUT  0x15,R30
000d2a e7a5      	LDI  R26,LOW(_gElLoc)
000d2b e0b7      	LDI  R27,HIGH(_gElLoc)
000d2c cf83      	RJMP SUBOPT_0x35
                 
                 ;OPTIMIZER ADDED SUBROUTINE, CALLED 2 TIMES, CODE SIZE REDUCTION:5 WORDS
                 SUBOPT_0x46:
000d2d 91e0 077f 	LDS  R30,_gShotCnt
000d2f 5fef      	SUBI R30,-LOW(1)
000d30 93e0 077f 	STS  _gShotCnt,R30
000d32 e0e0      	LDI  R30,LOW(0)
000d33 93e0 0775 	STS  _gElLoc,R30
000d35 93e0 0776 	STS  _gElLoc+1,R30
000d37 9508      	RET
                 
                 ;OPTIMIZER ADDED SUBROUTINE, CALLED 2 TIMES, CODE SIZE REDUCTION:6 WORDS
                 SUBOPT_0x47:
000d38 e0e0      	LDI  R30,LOW(0)
000d39 93e0 077f 	STS  _gShotCnt,R30
000d3b 93e0 0780 	STS  _gShotWaitTime,R30
000d3d 93e0 0781 	STS  _gShotWaitTime+1,R30
000d3f e0e1      	LDI  R30,LOW(1)
000d40 93e0 0518 	STS  _gElCompletFlag,R30
000d42 9508      	RET
                 
                 ;OPTIMIZER ADDED SUBROUTINE, CALLED 4 TIMES, CODE SIZE REDUCTION:6 WORDS
                 SUBOPT_0x48:
000d43 91ed      	LD   R30,X+
000d44 91fd      	LD   R31,X+
000d45 9731      	SBIW R30,1
000d46 93fe      	ST   -X,R31
000d47 93ee      	ST   -X,R30
000d48 9508      	RET
                 
                 ;OPTIMIZER ADDED SUBROUTINE, CALLED 2 TIMES, CODE SIZE REDUCTION:1 WORDS
                 SUBOPT_0x49:
000d49 e0e0      	LDI  R30,LOW(0)
000d4a bdef      	OUT  0x2F,R30
000d4b e0e1      	LDI  R30,LOW(1)
000d4c bdee      	OUT  0x2E,R30
000d4d cf68      	RJMP SUBOPT_0x36
                 
                 ;OPTIMIZER ADDED SUBROUTINE, CALLED 2 TIMES, CODE SIZE REDUCTION:7 WORDS
                 SUBOPT_0x4A:
000d4e e0e2      	LDI  R30,LOW(2)
000d4f 93e0 0500 	STS  _gElMatrix,R30
000d51 e0e1      	LDI  R30,LOW(1)
                +
000d52 93e0 0501+STS _gElMatrix + ( 1 ) , R30
                 	__PUTB1MN _gElMatrix,1
000d54 e0e8      	LDI  R30,LOW(8)
                +
000d55 93e0 0502+STS _gElMatrix + ( 2 ) , R30
                 	__PUTB1MN _gElMatrix,2
000d57 e0e4      	LDI  R30,LOW(4)
                +
000d58 93e0 0503+STS _gElMatrix + ( 3 ) , R30
                 	__PUTB1MN _gElMatrix,3
000d5a 9508      	RET
                 
                 ;OPTIMIZER ADDED SUBROUTINE, CALLED 3 TIMES, CODE SIZE REDUCTION:9 WORDS
                 SUBOPT_0x4B:
000d5b 91e0 0506 	LDS  R30,_gTime1ms
000d5d 91f0 0507 	LDS  R31,_gTime1ms+1
000d5f 93e0 0504 	STS  _goldTime1ms,R30
000d61 93f0 0505 	STS  _goldTime1ms+1,R31
000d63 9508      	RET
                 
                 ;OPTIMIZER ADDED SUBROUTINE, CALLED 3 TIMES, CODE SIZE REDUCTION:1 WORDS
                 SUBOPT_0x4C:
000d64 91a0 0773 	LDS  R26,_gAdcLoc
000d66 91b0 0774 	LDS  R27,_gAdcLoc+1
000d68 9508      	RET
                 
                 ;OPTIMIZER ADDED SUBROUTINE, CALLED 2 TIMES, CODE SIZE REDUCTION:1 WORDS
                 SUBOPT_0x4D:
000d69 91a0 051d 	LDS  R26,_gVolChkCount
000d6b 91b0 051e 	LDS  R27,_gVolChkCount+1
000d6d 940e 0fb8 	CALL __CPW02
000d6f 9508      	RET
                 
                 ;OPTIMIZER ADDED SUBROUTINE, CALLED 2 TIMES, CODE SIZE REDUCTION:10 WORDS
                 SUBOPT_0x4E:
000d70 01f8      	MOVW R30,R16
000d71 e9ac      	LDI  R26,LOW(_DacArray*2)
000d72 e0b0      	LDI  R27,HIGH(_DacArray*2)
000d73 940e 0f6c 	CALL __LSLW2
000d75 0fea      	ADD  R30,R26
000d76 1ffb      	ADC  R31,R27
000d77 940e 0fa5 	CALL __GETD1PF
                +
000d79 83ee     +STD Y + 6 , R30
000d7a 83ff     +STD Y + 6 + 1 , R31
000d7b 8768     +STD Y + 6 + 2 , R22
000d7c 8779     +STD Y + 6 + 3 , R23
                 	__PUTD1S 6
000d7d cd79      	RJMP SUBOPT_0x3
                 
                 ;OPTIMIZER ADDED SUBROUTINE, CALLED 8 TIMES, CODE SIZE REDUCTION:11 WORDS
                 SUBOPT_0x4F:
                +
000d7e 81ae     +LDD R26 , Y + 6
000d7f 81bf     +LDD R27 , Y + 6 + 1
000d80 8588     +LDD R24 , Y + 6 + 2
000d81 8599     +LDD R25 , Y + 6 + 3
                 	__GETD2S 6
000d82 9508      	RET
                 
                 ;OPTIMIZER ADDED SUBROUTINE, CALLED 4 TIMES, CODE SIZE REDUCTION:15 WORDS
                 SUBOPT_0x50:
                +
000d83 eced     +LDI R30 , LOW ( 0x3E4CCCCD )
000d84 ecfc     +LDI R31 , HIGH ( 0x3E4CCCCD )
000d85 e46c     +LDI R22 , BYTE3 ( 0x3E4CCCCD )
000d86 e37e     +LDI R23 , BYTE4 ( 0x3E4CCCCD )
                 	__GETD1N 0x3E4CCCCD
000d87 940e 0e94 	CALL __MULF12
000d89 cff4      	RJMP SUBOPT_0x4F
                 
                 ;OPTIMIZER ADDED SUBROUTINE, CALLED 3 TIMES, CODE SIZE REDUCTION:1 WORDS
                 SUBOPT_0x51:
000d8a dff3      	RCALL SUBOPT_0x4F
000d8b cff7      	RJMP SUBOPT_0x50
                 
                 ;OPTIMIZER ADDED SUBROUTINE, CALLED 2 TIMES, CODE SIZE REDUCTION:1 WORDS
                 SUBOPT_0x52:
000d8c e0e2      	LDI  R30,LOW(2)
000d8d 93e0 0512 	STS  _gFlag,R30
000d8f 91e0 0513 	LDS  R30,_gError
000d91 70e1      	ANDI R30,LOW(0x1)
000d92 9508      	RET
                 
                 ;OPTIMIZER ADDED SUBROUTINE, CALLED 4 TIMES, CODE SIZE REDUCTION:3 WORDS
                 SUBOPT_0x53:
000d93 e8a8      	LDI  R26,LOW(_gVolAdjCount)
000d94 e0b7      	LDI  R27,HIGH(_gVolAdjCount)
000d95 cf1a      	RJMP SUBOPT_0x35
                 
                 ;OPTIMIZER ADDED SUBROUTINE, CALLED 4 TIMES, CODE SIZE REDUCTION:6 WORDS
                 SUBOPT_0x54:
000d96 91a0 0788 	LDS  R26,_gVolAdjCount
000d98 91b0 0789 	LDS  R27,_gVolAdjCount+1
000d9a 9714      	SBIW R26,4
000d9b 9508      	RET
                 
                 ;OPTIMIZER ADDED SUBROUTINE, CALLED 4 TIMES, CODE SIZE REDUCTION:12 WORDS
                 SUBOPT_0x55:
000d9c e0e0      	LDI  R30,LOW(0)
000d9d 93e0 0788 	STS  _gVolAdjCount,R30
000d9f 93e0 0789 	STS  _gVolAdjCount+1,R30
000da1 91e0 0513 	LDS  R30,_gError
000da3 9508      	RET
                 
                 
                 	.CSEG
                 __ROUND_REPACK:
000da4 2355      	TST  R21
000da5 f442      	BRPL __REPACK
000da6 3850      	CPI  R21,0x80
000da7 f411      	BRNE __ROUND_REPACK0
000da8 ffe0      	SBRS R30,0
000da9 c004      	RJMP __REPACK
                 __ROUND_REPACK0:
000daa 9631      	ADIW R30,1
000dab 1f69      	ADC  R22,R25
000dac 1f79      	ADC  R23,R25
000dad f06b      	BRVS __REPACK1
                 
                 __REPACK:
000dae e850      	LDI  R21,0x80
000daf 2757      	EOR  R21,R23
000db0 f411      	BRNE __REPACK0
000db1 935f      	PUSH R21
000db2 c0cf      	RJMP __ZERORES
                 __REPACK0:
000db3 3f5f      	CPI  R21,0xFF
000db4 f031      	BREQ __REPACK1
000db5 0f66      	LSL  R22
000db6 0c00      	LSL  R0
000db7 9557      	ROR  R21
000db8 9567      	ROR  R22
000db9 2f75      	MOV  R23,R21
000dba 9508      	RET
                 __REPACK1:
000dbb 935f      	PUSH R21
000dbc 2000      	TST  R0
000dbd f00a      	BRMI __REPACK2
000dbe c0cf      	RJMP __MAXRES
                 __REPACK2:
000dbf c0c8      	RJMP __MINRES
                 
                 __UNPACK:
000dc0 e850      	LDI  R21,0x80
000dc1 2e19      	MOV  R1,R25
000dc2 2215      	AND  R1,R21
000dc3 0f88      	LSL  R24
000dc4 1f99      	ROL  R25
000dc5 2795      	EOR  R25,R21
000dc6 0f55      	LSL  R21
000dc7 9587      	ROR  R24
                 
                 __UNPACK1:
000dc8 e850      	LDI  R21,0x80
000dc9 2e07      	MOV  R0,R23
000dca 2205      	AND  R0,R21
000dcb 0f66      	LSL  R22
000dcc 1f77      	ROL  R23
000dcd 2775      	EOR  R23,R21
000dce 0f55      	LSL  R21
000dcf 9567      	ROR  R22
000dd0 9508      	RET
                 
                 __CFD1U:
000dd1 9468      	SET
000dd2 c001      	RJMP __CFD1U0
                 __CFD1:
000dd3 94e8      	CLT
                 __CFD1U0:
000dd4 935f      	PUSH R21
000dd5 dff2      	RCALL __UNPACK1
000dd6 3870      	CPI  R23,0x80
000dd7 f018      	BRLO __CFD10
000dd8 3f7f      	CPI  R23,0xFF
000dd9 f408      	BRCC __CFD10
000dda c0a7      	RJMP __ZERORES
                 __CFD10:
000ddb e156      	LDI  R21,22
000ddc 1b57      	SUB  R21,R23
000ddd f4aa      	BRPL __CFD11
000dde 9551      	NEG  R21
000ddf 3058      	CPI  R21,8
000de0 f40e      	BRTC __CFD19
000de1 3059      	CPI  R21,9
                 __CFD19:
000de2 f030      	BRLO __CFD17
000de3 efef      	SER  R30
000de4 efff      	SER  R31
000de5 ef6f      	SER  R22
000de6 e77f      	LDI  R23,0x7F
000de7 f977      	BLD  R23,7
000de8 c01a      	RJMP __CFD15
                 __CFD17:
000de9 2777      	CLR  R23
000dea 2355      	TST  R21
000deb f0b9      	BREQ __CFD15
                 __CFD18:
000dec 0fee      	LSL  R30
000ded 1fff      	ROL  R31
000dee 1f66      	ROL  R22
000def 1f77      	ROL  R23
000df0 955a      	DEC  R21
000df1 f7d1      	BRNE __CFD18
000df2 c010      	RJMP __CFD15
                 __CFD11:
000df3 2777      	CLR  R23
                 __CFD12:
000df4 3058      	CPI  R21,8
000df5 f028      	BRLO __CFD13
000df6 2fef      	MOV  R30,R31
000df7 2ff6      	MOV  R31,R22
000df8 2f67      	MOV  R22,R23
000df9 5058      	SUBI R21,8
000dfa cff9      	RJMP __CFD12
                 __CFD13:
000dfb 2355      	TST  R21
000dfc f031      	BREQ __CFD15
                 __CFD14:
000dfd 9576      	LSR  R23
000dfe 9567      	ROR  R22
000dff 95f7      	ROR  R31
000e00 95e7      	ROR  R30
000e01 955a      	DEC  R21
000e02 f7d1      	BRNE __CFD14
                 __CFD15:
000e03 2000      	TST  R0
000e04 f40a      	BRPL __CFD16
000e05 d145      	RCALL __ANEGD1
                 __CFD16:
000e06 915f      	POP  R21
000e07 9508      	RET
                 
                 __CDF1U:
000e08 9468      	SET
000e09 c001      	RJMP __CDF1U0
                 __CDF1:
000e0a 94e8      	CLT
                 __CDF1U0:
000e0b 9730      	SBIW R30,0
000e0c 4060      	SBCI R22,0
000e0d 4070      	SBCI R23,0
000e0e f0b1      	BREQ __CDF10
000e0f 2400      	CLR  R0
000e10 f026      	BRTS __CDF11
000e11 2377      	TST  R23
000e12 f412      	BRPL __CDF11
000e13 9400      	COM  R0
000e14 d136      	RCALL __ANEGD1
                 __CDF11:
000e15 2e17      	MOV  R1,R23
000e16 e17e      	LDI  R23,30
000e17 2011      	TST  R1
                 __CDF12:
000e18 f032      	BRMI __CDF13
000e19 957a      	DEC  R23
000e1a 0fee      	LSL  R30
000e1b 1fff      	ROL  R31
000e1c 1f66      	ROL  R22
000e1d 1c11      	ROL  R1
000e1e cff9      	RJMP __CDF12
                 __CDF13:
000e1f 2fef      	MOV  R30,R31
000e20 2ff6      	MOV  R31,R22
000e21 2d61      	MOV  R22,R1
000e22 935f      	PUSH R21
000e23 df8a      	RCALL __REPACK
000e24 915f      	POP  R21
                 __CDF10:
000e25 9508      	RET
                 
                 __SWAPACC:
000e26 934f      	PUSH R20
000e27 01af      	MOVW R20,R30
000e28 01fd      	MOVW R30,R26
000e29 01da      	MOVW R26,R20
000e2a 01ab      	MOVW R20,R22
000e2b 01bc      	MOVW R22,R24
000e2c 01ca      	MOVW R24,R20
000e2d 2d40      	MOV  R20,R0
000e2e 2c01      	MOV  R0,R1
000e2f 2e14      	MOV  R1,R20
000e30 914f      	POP  R20
000e31 9508      	RET
                 
                 __UADD12:
000e32 0fea      	ADD  R30,R26
000e33 1ffb      	ADC  R31,R27
000e34 1f68      	ADC  R22,R24
000e35 9508      	RET
                 
                 __NEGMAN1:
000e36 95e0      	COM  R30
000e37 95f0      	COM  R31
000e38 9560      	COM  R22
000e39 5fef      	SUBI R30,-1
000e3a 4fff      	SBCI R31,-1
000e3b 4f6f      	SBCI R22,-1
000e3c 9508      	RET
                 
                 __SUBF12:
000e3d 935f      	PUSH R21
000e3e df81      	RCALL __UNPACK
000e3f 3890      	CPI  R25,0x80
000e40 f171      	BREQ __ADDF129
000e41 e850      	LDI  R21,0x80
000e42 2615      	EOR  R1,R21
                 
000e43 c004      	RJMP __ADDF120
                 
                 __ADDF12:
000e44 935f      	PUSH R21
000e45 df7a      	RCALL __UNPACK
000e46 3890      	CPI  R25,0x80
000e47 f139      	BREQ __ADDF129
                 
                 __ADDF120:
000e48 3870      	CPI  R23,0x80
000e49 f121      	BREQ __ADDF128
                 __ADDF121:
000e4a 2f57      	MOV  R21,R23
000e4b 1b59      	SUB  R21,R25
000e4c f12b      	BRVS __ADDF1211
000e4d f412      	BRPL __ADDF122
000e4e dfd7      	RCALL __SWAPACC
000e4f cffa      	RJMP __ADDF121
                 __ADDF122:
000e50 3158      	CPI  R21,24
000e51 f018      	BRLO __ADDF123
000e52 27aa      	CLR  R26
000e53 27bb      	CLR  R27
000e54 2788      	CLR  R24
                 __ADDF123:
000e55 3058      	CPI  R21,8
000e56 f028      	BRLO __ADDF124
000e57 2fab      	MOV  R26,R27
000e58 2fb8      	MOV  R27,R24
000e59 2788      	CLR  R24
000e5a 5058      	SUBI R21,8
000e5b cff9      	RJMP __ADDF123
                 __ADDF124:
000e5c 2355      	TST  R21
000e5d f029      	BREQ __ADDF126
                 __ADDF125:
000e5e 9586      	LSR  R24
000e5f 95b7      	ROR  R27
000e60 95a7      	ROR  R26
000e61 955a      	DEC  R21
000e62 f7d9      	BRNE __ADDF125
                 __ADDF126:
000e63 2d50      	MOV  R21,R0
000e64 2551      	EOR  R21,R1
000e65 f072      	BRMI __ADDF127
000e66 dfcb      	RCALL __UADD12
000e67 f438      	BRCC __ADDF129
000e68 9567      	ROR  R22
000e69 95f7      	ROR  R31
000e6a 95e7      	ROR  R30
000e6b 9573      	INC  R23
000e6c f413      	BRVC __ADDF129
000e6d c020      	RJMP __MAXRES
                 __ADDF128:
000e6e dfb7      	RCALL __SWAPACC
                 __ADDF129:
000e6f df3e      	RCALL __REPACK
000e70 915f      	POP  R21
000e71 9508      	RET
                 __ADDF1211:
000e72 f7d8      	BRCC __ADDF128
000e73 cffb      	RJMP __ADDF129
                 __ADDF127:
000e74 1bea      	SUB  R30,R26
000e75 0bfb      	SBC  R31,R27
000e76 0b68      	SBC  R22,R24
000e77 f051      	BREQ __ZERORES
000e78 f410      	BRCC __ADDF1210
000e79 9400      	COM  R0
000e7a dfbb      	RCALL __NEGMAN1
                 __ADDF1210:
000e7b 2366      	TST  R22
000e7c f392      	BRMI __ADDF129
000e7d 0fee      	LSL  R30
000e7e 1fff      	ROL  R31
000e7f 1f66      	ROL  R22
000e80 957a      	DEC  R23
000e81 f7cb      	BRVC __ADDF1210
                 
                 __ZERORES:
000e82 27ee      	CLR  R30
000e83 27ff      	CLR  R31
000e84 2766      	CLR  R22
000e85 2777      	CLR  R23
000e86 915f      	POP  R21
000e87 9508      	RET
                 
                 __MINRES:
000e88 efef      	SER  R30
000e89 efff      	SER  R31
000e8a e76f      	LDI  R22,0x7F
000e8b ef7f      	SER  R23
000e8c 915f      	POP  R21
000e8d 9508      	RET
                 
                 __MAXRES:
000e8e efef      	SER  R30
000e8f efff      	SER  R31
000e90 e76f      	LDI  R22,0x7F
000e91 e77f      	LDI  R23,0x7F
000e92 915f      	POP  R21
000e93 9508      	RET
                 
                 __MULF12:
000e94 935f      	PUSH R21
000e95 df2a      	RCALL __UNPACK
000e96 3870      	CPI  R23,0x80
000e97 f351      	BREQ __ZERORES
000e98 3890      	CPI  R25,0x80
000e99 f341      	BREQ __ZERORES
000e9a 2401      	EOR  R0,R1
000e9b 9408      	SEC
000e9c 1f79      	ADC  R23,R25
000e9d f423      	BRVC __MULF124
000e9e f31c      	BRLT __ZERORES
                 __MULF125:
000e9f 2000      	TST  R0
000ea0 f33a      	BRMI __MINRES
000ea1 cfec      	RJMP __MAXRES
                 __MULF124:
000ea2 920f      	PUSH R0
000ea3 931f      	PUSH R17
000ea4 932f      	PUSH R18
000ea5 933f      	PUSH R19
000ea6 934f      	PUSH R20
000ea7 2711      	CLR  R17
000ea8 2722      	CLR  R18
000ea9 2799      	CLR  R25
000eaa 9f68      	MUL  R22,R24
000eab 01a0      	MOVW R20,R0
000eac 9f8f      	MUL  R24,R31
000ead 2d30      	MOV  R19,R0
000eae 0d41      	ADD  R20,R1
000eaf 1f59      	ADC  R21,R25
000eb0 9f6b      	MUL  R22,R27
000eb1 0d30      	ADD  R19,R0
000eb2 1d41      	ADC  R20,R1
000eb3 1f59      	ADC  R21,R25
000eb4 9f8e      	MUL  R24,R30
000eb5 d027      	RCALL __MULF126
000eb6 9fbf      	MUL  R27,R31
000eb7 d025      	RCALL __MULF126
000eb8 9f6a      	MUL  R22,R26
000eb9 d023      	RCALL __MULF126
000eba 9fbe      	MUL  R27,R30
000ebb d01d      	RCALL __MULF127
000ebc 9faf      	MUL  R26,R31
000ebd d01b      	RCALL __MULF127
000ebe 9fae      	MUL  R26,R30
000ebf 0d11      	ADD  R17,R1
000ec0 1f29      	ADC  R18,R25
000ec1 1f39      	ADC  R19,R25
000ec2 1f49      	ADC  R20,R25
000ec3 1f59      	ADC  R21,R25
000ec4 2fe3      	MOV  R30,R19
000ec5 2ff4      	MOV  R31,R20
000ec6 2f65      	MOV  R22,R21
000ec7 2f52      	MOV  R21,R18
000ec8 914f      	POP  R20
000ec9 913f      	POP  R19
000eca 912f      	POP  R18
000ecb 911f      	POP  R17
000ecc 900f      	POP  R0
000ecd 2366      	TST  R22
000ece f02a      	BRMI __MULF122
000ecf 0f55      	LSL  R21
000ed0 1fee      	ROL  R30
000ed1 1fff      	ROL  R31
000ed2 1f66      	ROL  R22
000ed3 c002      	RJMP __MULF123
                 __MULF122:
000ed4 9573      	INC  R23
000ed5 f24b      	BRVS __MULF125
                 __MULF123:
000ed6 decd      	RCALL __ROUND_REPACK
000ed7 915f      	POP  R21
000ed8 9508      	RET
                 
                 __MULF127:
000ed9 0d10      	ADD  R17,R0
000eda 1d21      	ADC  R18,R1
000edb 1f39      	ADC  R19,R25
000edc c002      	RJMP __MULF128
                 __MULF126:
000edd 0d20      	ADD  R18,R0
000ede 1d31      	ADC  R19,R1
                 __MULF128:
000edf 1f49      	ADC  R20,R25
000ee0 1f59      	ADC  R21,R25
000ee1 9508      	RET
                 
                 __DIVF21:
000ee2 935f      	PUSH R21
000ee3 dedc      	RCALL __UNPACK
000ee4 3870      	CPI  R23,0x80
000ee5 f421      	BRNE __DIVF210
000ee6 2011      	TST  R1
                 __DIVF211:
000ee7 f40a      	BRPL __DIVF219
000ee8 cf9f      	RJMP __MINRES
                 __DIVF219:
000ee9 cfa4      	RJMP __MAXRES
                 __DIVF210:
000eea 3890      	CPI  R25,0x80
000eeb f409      	BRNE __DIVF218
                 __DIVF217:
000eec cf95      	RJMP __ZERORES
                 __DIVF218:
000eed 2401      	EOR  R0,R1
000eee 9408      	SEC
000eef 0b97      	SBC  R25,R23
000ef0 f41b      	BRVC __DIVF216
000ef1 f3d4      	BRLT __DIVF217
000ef2 2000      	TST  R0
000ef3 cff3      	RJMP __DIVF211
                 __DIVF216:
000ef4 2f79      	MOV  R23,R25
000ef5 931f      	PUSH R17
000ef6 932f      	PUSH R18
000ef7 933f      	PUSH R19
000ef8 934f      	PUSH R20
000ef9 2411      	CLR  R1
000efa 2711      	CLR  R17
000efb 2722      	CLR  R18
000efc 2733      	CLR  R19
000efd 2744      	CLR  R20
000efe 2755      	CLR  R21
000eff e290      	LDI  R25,32
                 __DIVF212:
000f00 17ae      	CP   R26,R30
000f01 07bf      	CPC  R27,R31
000f02 0786      	CPC  R24,R22
000f03 0741      	CPC  R20,R17
000f04 f030      	BRLO __DIVF213
000f05 1bae      	SUB  R26,R30
000f06 0bbf      	SBC  R27,R31
000f07 0b86      	SBC  R24,R22
000f08 0b41      	SBC  R20,R17
000f09 9408      	SEC
000f0a c001      	RJMP __DIVF214
                 __DIVF213:
000f0b 9488      	CLC
                 __DIVF214:
000f0c 1f55      	ROL  R21
000f0d 1f22      	ROL  R18
000f0e 1f33      	ROL  R19
000f0f 1c11      	ROL  R1
000f10 1faa      	ROL  R26
000f11 1fbb      	ROL  R27
000f12 1f88      	ROL  R24
000f13 1f44      	ROL  R20
000f14 959a      	DEC  R25
000f15 f751      	BRNE __DIVF212
000f16 01f9      	MOVW R30,R18
000f17 2d61      	MOV  R22,R1
000f18 914f      	POP  R20
000f19 913f      	POP  R19
000f1a 912f      	POP  R18
000f1b 911f      	POP  R17
000f1c 2366      	TST  R22
000f1d f032      	BRMI __DIVF215
000f1e 0f55      	LSL  R21
000f1f 1fee      	ROL  R30
000f20 1fff      	ROL  R31
000f21 1f66      	ROL  R22
000f22 957a      	DEC  R23
000f23 f243      	BRVS __DIVF217
                 __DIVF215:
000f24 de7f      	RCALL __ROUND_REPACK
000f25 915f      	POP  R21
000f26 9508      	RET
                 
                 __CMPF12:
000f27 2399      	TST  R25
000f28 f09a      	BRMI __CMPF120
000f29 2377      	TST  R23
000f2a f042      	BRMI __CMPF121
000f2b 1797      	CP   R25,R23
000f2c f048      	BRLO __CMPF122
000f2d f429      	BRNE __CMPF121
000f2e 17ae      	CP   R26,R30
000f2f 07bf      	CPC  R27,R31
000f30 0786      	CPC  R24,R22
000f31 f020      	BRLO __CMPF122
000f32 f031      	BREQ __CMPF123
                 __CMPF121:
000f33 9498      	CLZ
000f34 9488      	CLC
000f35 9508      	RET
                 __CMPF122:
000f36 9498      	CLZ
000f37 9408      	SEC
000f38 9508      	RET
                 __CMPF123:
000f39 9418      	SEZ
000f3a 9488      	CLC
000f3b 9508      	RET
                 __CMPF120:
000f3c 2377      	TST  R23
000f3d f7c2      	BRPL __CMPF122
000f3e 1797      	CP   R25,R23
000f3f f398      	BRLO __CMPF121
000f40 f7a9      	BRNE __CMPF122
000f41 17ea      	CP   R30,R26
000f42 07fb      	CPC  R31,R27
000f43 0768      	CPC  R22,R24
000f44 f388      	BRLO __CMPF122
000f45 f399      	BREQ __CMPF123
000f46 cfec      	RJMP __CMPF121
                 
                 __ANEGW1:
000f47 95f1      	NEG  R31
000f48 95e1      	NEG  R30
000f49 40f0      	SBCI R31,0
000f4a 9508      	RET
                 
                 __ANEGD1:
000f4b 95f0      	COM  R31
000f4c 9560      	COM  R22
000f4d 9570      	COM  R23
000f4e 95e1      	NEG  R30
000f4f 4fff      	SBCI R31,-1
000f50 4f6f      	SBCI R22,-1
000f51 4f7f      	SBCI R23,-1
000f52 9508      	RET
                 
                 __LSLB12:
000f53 23ee      	TST  R30
000f54 2e0e      	MOV  R0,R30
000f55 2fea      	MOV  R30,R26
000f56 f019      	BREQ __LSLB12R
                 __LSLB12L:
000f57 0fee      	LSL  R30
000f58 940a      	DEC  R0
000f59 f7e9      	BRNE __LSLB12L
                 __LSLB12R:
000f5a 9508      	RET
                 
                 __LSRB12:
000f5b 23ee      	TST  R30
000f5c 2e0e      	MOV  R0,R30
000f5d 2fea      	MOV  R30,R26
000f5e f019      	BREQ __LSRB12R
                 __LSRB12L:
000f5f 95e6      	LSR  R30
000f60 940a      	DEC  R0
000f61 f7e9      	BRNE __LSRB12L
                 __LSRB12R:
000f62 9508      	RET
                 
                 __LSRW12:
000f63 23ee      	TST  R30
000f64 2e0e      	MOV  R0,R30
000f65 01fd      	MOVW R30,R26
000f66 f021      	BREQ __LSRW12R
                 __LSRW12L:
000f67 95f6      	LSR  R31
000f68 95e7      	ROR  R30
000f69 940a      	DEC  R0
000f6a f7e1      	BRNE __LSRW12L
                 __LSRW12R:
000f6b 9508      	RET
                 
                 __LSLW2:
000f6c 0fee      	LSL  R30
000f6d 1fff      	ROL  R31
000f6e 0fee      	LSL  R30
000f6f 1fff      	ROL  R31
000f70 9508      	RET
                 
                 __ASRW8:
000f71 2fef      	MOV  R30,R31
000f72 27ff      	CLR  R31
000f73 fde7      	SBRC R30,7
000f74 efff      	SER  R31
000f75 9508      	RET
                 
                 __CWD1:
000f76 2f6f      	MOV  R22,R31
000f77 0f66      	ADD  R22,R22
000f78 0b66      	SBC  R22,R22
000f79 2f76      	MOV  R23,R22
000f7a 9508      	RET
                 
                 __DIVW21U:
000f7b 2400      	CLR  R0
000f7c 2411      	CLR  R1
000f7d e190      	LDI  R25,16
                 __DIVW21U1:
000f7e 0faa      	LSL  R26
000f7f 1fbb      	ROL  R27
000f80 1c00      	ROL  R0
000f81 1c11      	ROL  R1
000f82 1a0e      	SUB  R0,R30
000f83 0a1f      	SBC  R1,R31
000f84 f418      	BRCC __DIVW21U2
000f85 0e0e      	ADD  R0,R30
000f86 1e1f      	ADC  R1,R31
000f87 c001      	RJMP __DIVW21U3
                 __DIVW21U2:
000f88 60a1      	SBR  R26,1
                 __DIVW21U3:
000f89 959a      	DEC  R25
000f8a f799      	BRNE __DIVW21U1
000f8b 01fd      	MOVW R30,R26
000f8c 01d0      	MOVW R26,R0
000f8d 9508      	RET
                 
                 __DIVW21:
000f8e d004      	RCALL __CHKSIGNW
000f8f dfeb      	RCALL __DIVW21U
000f90 f40e      	BRTC __DIVW211
000f91 dfb5      	RCALL __ANEGW1
                 __DIVW211:
000f92 9508      	RET
                 
                 __CHKSIGNW:
000f93 94e8      	CLT
000f94 fff7      	SBRS R31,7
000f95 c002      	RJMP __CHKSW1
000f96 dfb0      	RCALL __ANEGW1
000f97 9468      	SET
                 __CHKSW1:
000f98 ffb7      	SBRS R27,7
000f99 c006      	RJMP __CHKSW2
000f9a 95a0      	COM  R26
000f9b 95b0      	COM  R27
000f9c 9611      	ADIW R26,1
000f9d f800      	BLD  R0,0
000f9e 9403      	INC  R0
000f9f fa00      	BST  R0,0
                 __CHKSW2:
000fa0 9508      	RET
                 
                 __GETW1P:
000fa1 91ed      	LD   R30,X+
000fa2 91fc      	LD   R31,X
000fa3 9711      	SBIW R26,1
000fa4 9508      	RET
                 
                 __GETD1PF:
000fa5 9005      	LPM  R0,Z+
000fa6 9015      	LPM  R1,Z+
000fa7 9165      	LPM  R22,Z+
000fa8 9174      	LPM  R23,Z
000fa9 01f0      	MOVW R30,R0
000faa 9508      	RET
                 
                 __SWAPD12:
000fab 2e18      	MOV  R1,R24
000fac 2f86      	MOV  R24,R22
000fad 2d61      	MOV  R22,R1
000fae 2e19      	MOV  R1,R25
000faf 2f97      	MOV  R25,R23
000fb0 2d71      	MOV  R23,R1
                 
                 __SWAPW12:
000fb1 2e1b      	MOV  R1,R27
000fb2 2fbf      	MOV  R27,R31
000fb3 2df1      	MOV  R31,R1
                 
                 __SWAPB12:
000fb4 2e1a      	MOV  R1,R26
000fb5 2fae      	MOV  R26,R30
000fb6 2de1      	MOV  R30,R1
000fb7 9508      	RET
                 
                 __CPW02:
000fb8 2400      	CLR  R0
000fb9 160a      	CP   R0,R26
000fba 060b      	CPC  R0,R27
000fbb 9508      	RET
                 
                 __SAVELOCR6:
000fbc 935a      	ST   -Y,R21
                 __SAVELOCR5:
000fbd 934a      	ST   -Y,R20
                 __SAVELOCR4:
000fbe 933a      	ST   -Y,R19
                 __SAVELOCR3:
000fbf 932a      	ST   -Y,R18
                 __SAVELOCR2:
000fc0 931a      	ST   -Y,R17
000fc1 930a      	ST   -Y,R16
000fc2 9508      	RET
                 
                 __LOADLOCR6:
000fc3 815d      	LDD  R21,Y+5
                 __LOADLOCR5:
000fc4 814c      	LDD  R20,Y+4
                 __LOADLOCR4:
000fc5 813b      	LDD  R19,Y+3
                 __LOADLOCR3:
000fc6 812a      	LDD  R18,Y+2
                 __LOADLOCR2:
000fc7 8119      	LDD  R17,Y+1
000fc8 8108      	LD   R16,Y
000fc9 9508      	RET
                 
                 ;END OF CODE MARKER
                 __END_OF_CODE:


RESOURCE USE INFORMATION
------------------------

Notice:
The register and instruction counts are symbol table hit counts,
and hence implicitly used resources are not counted, eg, the
'lpm' instruction without operands implicitly uses r0 and z,
none of which are counted.

x,y,z are separate entities in the symbol table and are
counted separately from r26..r31 here.

.dseg memory usage only counts static data declared with .byte

ATmega128 register use summary:
r0 :  49 r1 :  39 r2 :   0 r3 :   0 r4 :   5 r5 :   5 r6 :   1 r7 :   7 
r8 :   5 r9 :   3 r10:   7 r11:   5 r12:   3 r13:   1 r14:   0 r15:   2 
r16:  98 r17: 102 r18:  31 r19:  29 r20:  37 r21:  67 r22:  65 r23:  55 
r24:  40 r25:  43 r26: 379 r27: 159 r28:  33 r29:   1 r30: 899 r31: 209 
x  :  51 y  : 316 z  :  60 
Registers used: 32 out of 35 (91.4%)

ATmega128 instruction use summary:
.lds  :   0 .lds.l:   0 .sts  :   0 .sts.l:   0 adc   :  27 add   :  18 
adiw  :  59 and   :  10 andi  :  34 asr   :   0 bclr  :   0 bld   :   2 
brbc  :   0 brbs  :   0 brcc  :   7 brcs  :   0 break :   0 breq  :  40 
brge  :  17 brhc  :   0 brhs  :   0 brid  :   0 brie  :   0 brlo  :  23 
brlt  :  31 brmi  :   9 brne  :  72 brpl  :  14 brsh  :  10 brtc  :   2 
brts  :   1 brvc  :   4 brvs  :   4 bset  :   0 bst   :   1 call  : 376 
cbi   :   7 cbr   :   0 clc   :   3 clh   :   0 cli   :   5 cln   :   0 
clr   :  43 cls   :   0 clt   :   3 clv   :   0 clz   :   2 com   :  11 
cp    :  23 cpc   :  24 cpi   :  75 cpse  :   0 dec   :  15 des   :   0 
elpm  :   0 eor   :   7 fmul  :   0 fmuls :   0 fmulsu:   0 icall :   4 
ijmp  :   0 in    :   8 inc   :   9 jmp   :  48 ld    :  60 ldd   : 179 
ldi   : 364 lds   : 166 lpm   :  14 lsl   :  16 lsr   :   4 mov   :  83 
movw  :  91 mul   :   9 muls  :   0 mulsu :   0 neg   :   4 nop   :   1 
or    :  13 ori   :  13 out   :  55 pop   :  44 push  :  44 rcall :  64 
ret   : 138 reti  :   3 rjmp  : 189 rol   :  30 ror   :  13 sbc   :  10 
sbci  :  20 sbi   :  15 sbic  :   2 sbis  :   4 sbiw  :  49 sbr   :   1 
sbrc  :   1 sbrs  :   3 sec   :   4 seh   :   0 sei   :   5 sen   :   0 
ser   :   9 ses   :   0 set   :   3 sev   :   0 sez   :   1 sleep :   0 
spm   :   0 st    : 163 std   :  13 sts   : 161 sub   :   7 subi  :  18 
swap  :   9 tst   :  27 wdr   :   0 
Instructions used: 81 out of 117 (69.2%)

ATmega128 memory use summary [bytes]:
Segment   Begin    End      Code   Data   Used    Size   Use%
---------------------------------------------------------------
[.cseg] 0x000000 0x001f94   7838    246   8084  131072   6.2%
[.dseg] 0x000100 0x00078f      0    655    655    4096  16.0%
[.eseg] 0x000000 0x000000      0      0      0    4096   0.0%

Assembly complete, 0 errors, 13 warnings
